(lp0
(lp1
(lp2
a(lp3
(lp4
I-1
aaa(lp5
(lp6
I-1
aI0
aaa(lp7
(lp8
I-1
aI0
aI1
aa(lp9
I-1
aI0
aI0
aaa(lp10
(lp11
I-1
aI0
aI1
aI1
aa(lp12
I-1
aI0
aI1
aI2
aa(lp13
I-1
aI0
aI0
aI2
aa(lp14
I-1
aI0
aI0
aI0
aaa(lp15
(lp16
I-1
aI0
aI1
aI1
aI1
aa(lp17
I-1
aI0
aI1
aI1
aI3
aa(lp18
I-1
aI0
aI1
aI2
aI3
aa(lp19
I-1
aI0
aI1
aI2
aI2
aa(lp20
I-1
aI0
aI0
aI2
aI2
aa(lp21
I-1
aI0
aI0
aI2
aI3
aa(lp22
I-1
aI0
aI1
aI0
aI3
aa(lp23
I-1
aI0
aI0
aI0
aI3
aa(lp24
I-1
aI0
aI0
aI0
aI0
aaa(lp25
(lp26
I-1
aI0
aI1
aI1
aI1
aI1
aa(lp27
I-1
aI0
aI1
aI1
aI1
aI4
aa(lp28
I-1
aI0
aI1
aI2
aI1
aI4
aa(lp29
I-1
aI0
aI1
aI1
aI3
aI4
aa(lp30
I-1
aI0
aI1
aI1
aI3
aI3
aa(lp31
I-1
aI0
aI1
aI2
aI3
aI3
aa(lp32
I-1
aI0
aI1
aI2
aI3
aI4
aa(lp33
I-1
aI0
aI1
aI2
aI2
aI4
aa(lp34
I-1
aI0
aI1
aI2
aI2
aI2
aa(lp35
I-1
aI0
aI0
aI2
aI2
aI2
aa(lp36
I-1
aI0
aI0
aI2
aI2
aI4
aa(lp37
I-1
aI0
aI0
aI2
aI3
aI4
aa(lp38
I-1
aI0
aI0
aI2
aI3
aI3
aa(lp39
I-1
aI0
aI1
aI0
aI3
aI3
aa(lp40
I-1
aI0
aI1
aI0
aI3
aI4
aa(lp41
I-1
aI0
aI0
aI0
aI3
aI3
aa(lp42
I-1
aI0
aI0
aI0
aI3
aI4
aa(lp43
I-1
aI0
aI0
aI2
aI0
aI4
aa(lp44
I-1
aI0
aI0
aI0
aI0
aI4
aa(lp45
I-1
aI0
aI0
aI0
aI0
aI0
aaa(lp46
(lp47
I-1
aI0
aI1
aI1
aI1
aI1
aI1
aa(lp48
I-1
aI0
aI1
aI1
aI1
aI1
aI5
aa(lp49
I-1
aI0
aI1
aI1
aI3
aI1
aI5
aa(lp50
I-1
aI0
aI1
aI1
aI1
aI4
aI5
aa(lp51
I-1
aI0
aI1
aI1
aI1
aI4
aI4
aa(lp52
I-1
aI0
aI1
aI2
aI1
aI4
aI5
aa(lp53
I-1
aI0
aI1
aI2
aI1
aI4
aI4
aa(lp54
I-1
aI0
aI1
aI1
aI3
aI4
aI4
aa(lp55
I-1
aI0
aI1
aI1
aI3
aI4
aI5
aa(lp56
I-1
aI0
aI1
aI1
aI3
aI3
aI5
aa(lp57
I-1
aI0
aI1
aI1
aI3
aI3
aI3
aa(lp58
I-1
aI0
aI1
aI2
aI3
aI3
aI3
aa(lp59
I-1
aI0
aI1
aI2
aI3
aI3
aI5
aa(lp60
I-1
aI0
aI1
aI2
aI3
aI4
aI5
aa(lp61
I-1
aI0
aI1
aI2
aI3
aI4
aI4
aa(lp62
I-1
aI0
aI1
aI2
aI2
aI4
aI4
aa(lp63
I-1
aI0
aI1
aI2
aI2
aI4
aI5
aa(lp64
I-1
aI0
aI1
aI2
aI3
aI2
aI5
aa(lp65
I-1
aI0
aI1
aI2
aI2
aI2
aI5
aa(lp66
I-1
aI0
aI1
aI2
aI2
aI2
aI2
aa(lp67
I-1
aI0
aI0
aI2
aI2
aI2
aI2
aa(lp68
I-1
aI0
aI0
aI2
aI2
aI2
aI5
aa(lp69
I-1
aI0
aI0
aI2
aI3
aI2
aI5
aa(lp70
I-1
aI0
aI0
aI2
aI2
aI4
aI5
aa(lp71
I-1
aI0
aI0
aI2
aI2
aI4
aI4
aa(lp72
I-1
aI0
aI0
aI2
aI3
aI4
aI4
aa(lp73
I-1
aI0
aI0
aI2
aI3
aI4
aI5
aa(lp74
I-1
aI0
aI0
aI2
aI3
aI3
aI5
aa(lp75
I-1
aI0
aI0
aI2
aI3
aI3
aI3
aa(lp76
I-1
aI0
aI1
aI0
aI3
aI3
aI3
aa(lp77
I-1
aI0
aI1
aI0
aI3
aI3
aI5
aa(lp78
I-1
aI0
aI1
aI0
aI3
aI4
aI5
aa(lp79
I-1
aI0
aI1
aI0
aI3
aI4
aI4
aa(lp80
I-1
aI0
aI1
aI1
aI0
aI4
aI4
aa(lp81
I-1
aI0
aI1
aI2
aI0
aI4
aI4
aa(lp82
I-1
aI0
aI1
aI2
aI0
aI4
aI5
aa(lp83
I-1
aI0
aI0
aI0
aI3
aI3
aI3
aa(lp84
I-1
aI0
aI0
aI0
aI3
aI3
aI5
aa(lp85
I-1
aI0
aI0
aI0
aI3
aI4
aI5
aa(lp86
I-1
aI0
aI0
aI0
aI3
aI4
aI4
aa(lp87
I-1
aI0
aI0
aI2
aI0
aI4
aI4
aa(lp88
I-1
aI0
aI0
aI2
aI0
aI4
aI5
aa(lp89
I-1
aI0
aI1
aI0
aI3
aI0
aI5
aa(lp90
I-1
aI0
aI0
aI0
aI0
aI4
aI4
aa(lp91
I-1
aI0
aI0
aI0
aI0
aI4
aI5
aa(lp92
I-1
aI0
aI0
aI0
aI3
aI0
aI5
aa(lp93
I-1
aI0
aI0
aI0
aI0
aI0
aI5
aa(lp94
I-1
aI0
aI0
aI0
aI0
aI0
aI0
aaa(lp95
(lp96
I-1
aI0
aI1
aI1
aI1
aI1
aI1
aI1
aa(lp97
I-1
aI0
aI1
aI1
aI1
aI1
aI1
aI6
aa(lp98
I-1
aI0
aI1
aI1
aI1
aI4
aI1
aI6
aa(lp99
I-1
aI0
aI1
aI1
aI1
aI1
aI5
aI6
aa(lp100
I-1
aI0
aI1
aI1
aI1
aI1
aI5
aI5
aa(lp101
I-1
aI0
aI1
aI2
aI1
aI4
aI1
aI6
aa(lp102
I-1
aI0
aI1
aI1
aI3
aI1
aI5
aI6
aa(lp103
I-1
aI0
aI1
aI1
aI3
aI1
aI5
aI5
aa(lp104
I-1
aI0
aI1
aI1
aI1
aI4
aI5
aI5
aa(lp105
I-1
aI0
aI1
aI1
aI1
aI4
aI5
aI6
aa(lp106
I-1
aI0
aI1
aI1
aI1
aI4
aI4
aI6
aa(lp107
I-1
aI0
aI1
aI1
aI1
aI4
aI4
aI4
aa(lp108
I-1
aI0
aI1
aI2
aI3
aI1
aI5
aI6
aa(lp109
I-1
aI0
aI1
aI2
aI3
aI1
aI5
aI5
aa(lp110
I-1
aI0
aI1
aI2
aI2
aI1
aI5
aI5
aa(lp111
I-1
aI0
aI1
aI2
aI1
aI4
aI5
aI5
aa(lp112
I-1
aI0
aI1
aI2
aI1
aI4
aI5
aI6
aa(lp113
I-1
aI0
aI1
aI2
aI1
aI4
aI4
aI6
aa(lp114
I-1
aI0
aI1
aI2
aI1
aI4
aI4
aI4
aa(lp115
I-1
aI0
aI1
aI1
aI3
aI4
aI4
aI4
aa(lp116
I-1
aI0
aI1
aI1
aI3
aI4
aI4
aI6
aa(lp117
I-1
aI0
aI1
aI1
aI3
aI4
aI5
aI6
aa(lp118
I-1
aI0
aI1
aI1
aI3
aI4
aI5
aI5
aa(lp119
I-1
aI0
aI1
aI1
aI3
aI3
aI5
aI5
aa(lp120
I-1
aI0
aI1
aI1
aI3
aI3
aI5
aI6
aa(lp121
I-1
aI0
aI1
aI1
aI3
aI4
aI3
aI6
aa(lp122
I-1
aI0
aI1
aI1
aI3
aI3
aI3
aI6
aa(lp123
I-1
aI0
aI1
aI1
aI3
aI3
aI3
aI3
aa(lp124
I-1
aI0
aI1
aI2
aI3
aI3
aI3
aI3
aa(lp125
I-1
aI0
aI1
aI2
aI3
aI3
aI3
aI6
aa(lp126
I-1
aI0
aI1
aI2
aI3
aI4
aI3
aI6
aa(lp127
I-1
aI0
aI1
aI2
aI3
aI3
aI5
aI6
aa(lp128
I-1
aI0
aI1
aI2
aI3
aI3
aI5
aI5
aa(lp129
I-1
aI0
aI1
aI2
aI3
aI4
aI5
aI5
aa(lp130
I-1
aI0
aI1
aI2
aI3
aI4
aI5
aI6
aa(lp131
I-1
aI0
aI1
aI2
aI3
aI4
aI4
aI6
aa(lp132
I-1
aI0
aI1
aI2
aI3
aI4
aI4
aI4
aa(lp133
I-1
aI0
aI1
aI2
aI2
aI4
aI4
aI4
aa(lp134
I-1
aI0
aI1
aI2
aI2
aI4
aI4
aI6
aa(lp135
I-1
aI0
aI1
aI2
aI2
aI4
aI5
aI6
aa(lp136
I-1
aI0
aI1
aI2
aI2
aI4
aI5
aI5
aa(lp137
I-1
aI0
aI1
aI2
aI3
aI2
aI5
aI5
aa(lp138
I-1
aI0
aI1
aI2
aI3
aI2
aI5
aI6
aa(lp139
I-1
aI0
aI1
aI2
aI2
aI2
aI5
aI5
aa(lp140
I-1
aI0
aI1
aI2
aI2
aI2
aI5
aI6
aa(lp141
I-1
aI0
aI1
aI2
aI2
aI4
aI2
aI6
aa(lp142
I-1
aI0
aI1
aI2
aI2
aI2
aI2
aI6
aa(lp143
I-1
aI0
aI1
aI2
aI2
aI2
aI2
aI2
aa(lp144
I-1
aI0
aI0
aI2
aI2
aI2
aI2
aI2
aa(lp145
I-1
aI0
aI0
aI2
aI2
aI2
aI2
aI6
aa(lp146
I-1
aI0
aI0
aI2
aI2
aI4
aI2
aI6
aa(lp147
I-1
aI0
aI0
aI2
aI2
aI2
aI5
aI6
aa(lp148
I-1
aI0
aI0
aI2
aI2
aI2
aI5
aI5
aa(lp149
I-1
aI0
aI0
aI2
aI3
aI2
aI5
aI6
aa(lp150
I-1
aI0
aI0
aI2
aI3
aI2
aI5
aI5
aa(lp151
I-1
aI0
aI0
aI2
aI2
aI4
aI5
aI5
aa(lp152
I-1
aI0
aI0
aI2
aI2
aI4
aI5
aI6
aa(lp153
I-1
aI0
aI0
aI2
aI2
aI4
aI4
aI6
aa(lp154
I-1
aI0
aI0
aI2
aI2
aI4
aI4
aI4
aa(lp155
I-1
aI0
aI0
aI2
aI3
aI4
aI4
aI4
aa(lp156
I-1
aI0
aI0
aI2
aI3
aI4
aI4
aI6
aa(lp157
I-1
aI0
aI0
aI2
aI3
aI4
aI5
aI6
aa(lp158
I-1
aI0
aI0
aI2
aI3
aI4
aI5
aI5
aa(lp159
I-1
aI0
aI0
aI2
aI3
aI3
aI5
aI5
aa(lp160
I-1
aI0
aI0
aI2
aI3
aI3
aI5
aI6
aa(lp161
I-1
aI0
aI0
aI2
aI3
aI4
aI3
aI6
aa(lp162
I-1
aI0
aI0
aI2
aI3
aI3
aI3
aI6
aa(lp163
I-1
aI0
aI0
aI2
aI3
aI3
aI3
aI3
aa(lp164
I-1
aI0
aI1
aI0
aI3
aI3
aI3
aI3
aa(lp165
I-1
aI0
aI1
aI0
aI3
aI3
aI3
aI6
aa(lp166
I-1
aI0
aI1
aI0
aI3
aI4
aI3
aI6
aa(lp167
I-1
aI0
aI1
aI0
aI3
aI3
aI5
aI6
aa(lp168
I-1
aI0
aI1
aI0
aI3
aI3
aI5
aI5
aa(lp169
I-1
aI0
aI1
aI0
aI3
aI4
aI5
aI5
aa(lp170
I-1
aI0
aI1
aI0
aI3
aI4
aI5
aI6
aa(lp171
I-1
aI0
aI1
aI0
aI3
aI4
aI4
aI6
aa(lp172
I-1
aI0
aI1
aI0
aI3
aI4
aI4
aI4
aa(lp173
I-1
aI0
aI1
aI1
aI0
aI4
aI4
aI4
aa(lp174
I-1
aI0
aI1
aI1
aI0
aI4
aI4
aI6
aa(lp175
I-1
aI0
aI1
aI1
aI0
aI4
aI5
aI6
aa(lp176
I-1
aI0
aI1
aI1
aI0
aI4
aI5
aI5
aa(lp177
I-1
aI0
aI1
aI2
aI0
aI4
aI4
aI4
aa(lp178
I-1
aI0
aI1
aI2
aI0
aI4
aI4
aI6
aa(lp179
I-1
aI0
aI1
aI2
aI0
aI4
aI5
aI6
aa(lp180
I-1
aI0
aI1
aI2
aI0
aI4
aI5
aI5
aa(lp181
I-1
aI0
aI0
aI0
aI3
aI3
aI3
aI3
aa(lp182
I-1
aI0
aI0
aI0
aI3
aI3
aI3
aI6
aa(lp183
I-1
aI0
aI0
aI0
aI3
aI4
aI3
aI6
aa(lp184
I-1
aI0
aI0
aI0
aI3
aI3
aI5
aI6
aa(lp185
I-1
aI0
aI0
aI0
aI3
aI3
aI5
aI5
aa(lp186
I-1
aI0
aI0
aI0
aI3
aI4
aI5
aI5
aa(lp187
I-1
aI0
aI0
aI0
aI3
aI4
aI5
aI6
aa(lp188
I-1
aI0
aI0
aI0
aI3
aI4
aI4
aI6
aa(lp189
I-1
aI0
aI0
aI0
aI3
aI4
aI4
aI4
aa(lp190
I-1
aI0
aI0
aI2
aI0
aI4
aI4
aI4
aa(lp191
I-1
aI0
aI0
aI2
aI0
aI4
aI4
aI6
aa(lp192
I-1
aI0
aI0
aI2
aI0
aI4
aI5
aI6
aa(lp193
I-1
aI0
aI0
aI2
aI0
aI4
aI5
aI5
aa(lp194
I-1
aI0
aI0
aI2
aI2
aI0
aI5
aI5
aa(lp195
I-1
aI0
aI0
aI2
aI3
aI0
aI5
aI5
aa(lp196
I-1
aI0
aI0
aI2
aI3
aI0
aI5
aI6
aa(lp197
I-1
aI0
aI1
aI0
aI3
aI0
aI5
aI5
aa(lp198
I-1
aI0
aI1
aI0
aI3
aI0
aI5
aI6
aa(lp199
I-1
aI0
aI0
aI0
aI0
aI4
aI4
aI4
aa(lp200
I-1
aI0
aI0
aI0
aI0
aI4
aI4
aI6
aa(lp201
I-1
aI0
aI0
aI0
aI0
aI4
aI5
aI6
aa(lp202
I-1
aI0
aI0
aI0
aI0
aI4
aI5
aI5
aa(lp203
I-1
aI0
aI0
aI0
aI3
aI0
aI5
aI5
aa(lp204
I-1
aI0
aI0
aI0
aI3
aI0
aI5
aI6
aa(lp205
I-1
aI0
aI0
aI2
aI0
aI4
aI0
aI6
aa(lp206
I-1
aI0
aI0
aI0
aI0
aI0
aI5
aI5
aa(lp207
I-1
aI0
aI0
aI0
aI0
aI0
aI5
aI6
aa(lp208
I-1
aI0
aI0
aI0
aI0
aI4
aI0
aI6
aa(lp209
I-1
aI0
aI0
aI0
aI0
aI0
aI0
aI6
aa(lp210
I-1
aI0
aI0
aI0
aI0
aI0
aI0
aI0
aaa(lp211
(lp212
I-1
aI0
aI1
aI1
aI1
aI1
aI1
aI1
aI1
aa(lp213
I-1
aI0
aI1
aI1
aI1
aI1
aI1
aI1
aI7
aa(lp214
I-1
aI0
aI1
aI1
aI1
aI1
aI5
aI1
aI7
aa(lp215
I-1
aI0
aI1
aI1
aI1
aI1
aI1
aI6
aI7
aa(lp216
I-1
aI0
aI1
aI1
aI1
aI1
aI1
aI6
aI6
aa(lp217
I-1
aI0
aI1
aI1
aI3
aI1
aI5
aI1
aI7
aa(lp218
I-1
aI0
aI1
aI1
aI1
aI4
aI1
aI6
aI7
aa(lp219
I-1
aI0
aI1
aI1
aI1
aI4
aI1
aI6
aI6
aa(lp220
I-1
aI0
aI1
aI1
aI1
aI1
aI5
aI6
aI6
aa(lp221
I-1
aI0
aI1
aI1
aI1
aI1
aI5
aI6
aI7
aa(lp222
I-1
aI0
aI1
aI1
aI1
aI1
aI5
aI5
aI7
aa(lp223
I-1
aI0
aI1
aI1
aI1
aI1
aI5
aI5
aI5
aa(lp224
I-1
aI0
aI1
aI2
aI1
aI4
aI1
aI6
aI7
aa(lp225
I-1
aI0
aI1
aI2
aI1
aI4
aI1
aI6
aI6
aa(lp226
I-1
aI0
aI1
aI1
aI3
aI4
aI1
aI6
aI7
aa(lp227
I-1
aI0
aI1
aI1
aI3
aI4
aI1
aI6
aI6
aa(lp228
I-1
aI0
aI1
aI1
aI3
aI3
aI1
aI6
aI6
aa(lp229
I-1
aI0
aI1
aI1
aI3
aI1
aI5
aI6
aI6
aa(lp230
I-1
aI0
aI1
aI1
aI3
aI1
aI5
aI6
aI7
aa(lp231
I-1
aI0
aI1
aI1
aI3
aI1
aI5
aI5
aI7
aa(lp232
I-1
aI0
aI1
aI1
aI3
aI1
aI5
aI5
aI5
aa(lp233
I-1
aI0
aI1
aI1
aI1
aI4
aI5
aI5
aI5
aa(lp234
I-1
aI0
aI1
aI1
aI1
aI4
aI5
aI5
aI7
aa(lp235
I-1
aI0
aI1
aI1
aI1
aI4
aI5
aI6
aI7
aa(lp236
I-1
aI0
aI1
aI1
aI1
aI4
aI5
aI6
aI6
aa(lp237
I-1
aI0
aI1
aI1
aI1
aI4
aI4
aI6
aI6
aa(lp238
I-1
aI0
aI1
aI1
aI1
aI4
aI4
aI6
aI7
aa(lp239
I-1
aI0
aI1
aI1
aI1
aI4
aI5
aI4
aI7
aa(lp240
I-1
aI0
aI1
aI1
aI1
aI4
aI4
aI4
aI7
aa(lp241
I-1
aI0
aI1
aI1
aI1
aI4
aI4
aI4
aI4
aa(lp242
I-1
aI0
aI1
aI2
aI3
aI1
aI5
aI6
aI6
aa(lp243
I-1
aI0
aI1
aI2
aI3
aI1
aI5
aI6
aI7
aa(lp244
I-1
aI0
aI1
aI2
aI3
aI1
aI5
aI5
aI7
aa(lp245
I-1
aI0
aI1
aI2
aI3
aI1
aI5
aI5
aI5
aa(lp246
I-1
aI0
aI1
aI2
aI2
aI1
aI5
aI6
aI6
aa(lp247
I-1
aI0
aI1
aI2
aI2
aI1
aI5
aI6
aI7
aa(lp248
I-1
aI0
aI1
aI2
aI2
aI1
aI5
aI5
aI7
aa(lp249
I-1
aI0
aI1
aI2
aI2
aI1
aI5
aI5
aI5
aa(lp250
I-1
aI0
aI1
aI2
aI1
aI4
aI5
aI5
aI5
aa(lp251
I-1
aI0
aI1
aI2
aI1
aI4
aI5
aI5
aI7
aa(lp252
I-1
aI0
aI1
aI2
aI1
aI4
aI5
aI6
aI7
aa(lp253
I-1
aI0
aI1
aI2
aI1
aI4
aI5
aI6
aI6
aa(lp254
I-1
aI0
aI1
aI2
aI1
aI4
aI4
aI6
aI6
aa(lp255
I-1
aI0
aI1
aI2
aI1
aI4
aI4
aI6
aI7
aa(lp256
I-1
aI0
aI1
aI2
aI1
aI4
aI5
aI4
aI7
aa(lp257
I-1
aI0
aI1
aI2
aI1
aI4
aI4
aI4
aI7
aa(lp258
I-1
aI0
aI1
aI2
aI1
aI4
aI4
aI4
aI4
aa(lp259
I-1
aI0
aI1
aI1
aI3
aI4
aI4
aI4
aI4
aa(lp260
I-1
aI0
aI1
aI1
aI3
aI4
aI4
aI4
aI7
aa(lp261
I-1
aI0
aI1
aI1
aI3
aI4
aI5
aI4
aI7
aa(lp262
I-1
aI0
aI1
aI1
aI3
aI4
aI4
aI6
aI7
aa(lp263
I-1
aI0
aI1
aI1
aI3
aI4
aI4
aI6
aI6
aa(lp264
I-1
aI0
aI1
aI1
aI3
aI4
aI5
aI6
aI6
aa(lp265
I-1
aI0
aI1
aI1
aI3
aI4
aI5
aI6
aI7
aa(lp266
I-1
aI0
aI1
aI1
aI3
aI4
aI5
aI5
aI7
aa(lp267
I-1
aI0
aI1
aI1
aI3
aI4
aI5
aI5
aI5
aa(lp268
I-1
aI0
aI1
aI1
aI3
aI3
aI5
aI5
aI5
aa(lp269
I-1
aI0
aI1
aI1
aI3
aI3
aI5
aI5
aI7
aa(lp270
I-1
aI0
aI1
aI1
aI3
aI3
aI5
aI6
aI7
aa(lp271
I-1
aI0
aI1
aI1
aI3
aI3
aI5
aI6
aI6
aa(lp272
I-1
aI0
aI1
aI1
aI3
aI4
aI3
aI6
aI6
aa(lp273
I-1
aI0
aI1
aI1
aI3
aI4
aI3
aI6
aI7
aa(lp274
I-1
aI0
aI1
aI1
aI3
aI3
aI3
aI6
aI6
aa(lp275
I-1
aI0
aI1
aI1
aI3
aI3
aI3
aI6
aI7
aa(lp276
I-1
aI0
aI1
aI1
aI3
aI3
aI5
aI3
aI7
aa(lp277
I-1
aI0
aI1
aI1
aI3
aI3
aI3
aI3
aI7
aa(lp278
I-1
aI0
aI1
aI1
aI3
aI3
aI3
aI3
aI3
aa(lp279
I-1
aI0
aI1
aI2
aI3
aI3
aI3
aI3
aI3
aa(lp280
I-1
aI0
aI1
aI2
aI3
aI3
aI3
aI3
aI7
aa(lp281
I-1
aI0
aI1
aI2
aI3
aI3
aI5
aI3
aI7
aa(lp282
I-1
aI0
aI1
aI2
aI3
aI3
aI3
aI6
aI7
aa(lp283
I-1
aI0
aI1
aI2
aI3
aI3
aI3
aI6
aI6
aa(lp284
I-1
aI0
aI1
aI2
aI3
aI4
aI3
aI6
aI7
aa(lp285
I-1
aI0
aI1
aI2
aI3
aI4
aI3
aI6
aI6
aa(lp286
I-1
aI0
aI1
aI2
aI3
aI3
aI5
aI6
aI6
aa(lp287
I-1
aI0
aI1
aI2
aI3
aI3
aI5
aI6
aI7
aa(lp288
I-1
aI0
aI1
aI2
aI3
aI3
aI5
aI5
aI7
aa(lp289
I-1
aI0
aI1
aI2
aI3
aI3
aI5
aI5
aI5
aa(lp290
I-1
aI0
aI1
aI2
aI3
aI4
aI5
aI5
aI5
aa(lp291
I-1
aI0
aI1
aI2
aI3
aI4
aI5
aI5
aI7
aa(lp292
I-1
aI0
aI1
aI2
aI3
aI4
aI5
aI6
aI7
aa(lp293
I-1
aI0
aI1
aI2
aI3
aI4
aI5
aI6
aI6
aa(lp294
I-1
aI0
aI1
aI2
aI3
aI4
aI4
aI6
aI6
aa(lp295
I-1
aI0
aI1
aI2
aI3
aI4
aI4
aI6
aI7
aa(lp296
I-1
aI0
aI1
aI2
aI3
aI4
aI5
aI4
aI7
aa(lp297
I-1
aI0
aI1
aI2
aI3
aI4
aI4
aI4
aI7
aa(lp298
I-1
aI0
aI1
aI2
aI3
aI4
aI4
aI4
aI4
aa(lp299
I-1
aI0
aI1
aI2
aI2
aI4
aI4
aI4
aI4
aa(lp300
I-1
aI0
aI1
aI2
aI2
aI4
aI4
aI4
aI7
aa(lp301
I-1
aI0
aI1
aI2
aI2
aI4
aI5
aI4
aI7
aa(lp302
I-1
aI0
aI1
aI2
aI2
aI4
aI4
aI6
aI7
aa(lp303
I-1
aI0
aI1
aI2
aI2
aI4
aI4
aI6
aI6
aa(lp304
I-1
aI0
aI1
aI2
aI2
aI4
aI5
aI6
aI6
aa(lp305
I-1
aI0
aI1
aI2
aI2
aI4
aI5
aI6
aI7
aa(lp306
I-1
aI0
aI1
aI2
aI2
aI4
aI5
aI5
aI7
aa(lp307
I-1
aI0
aI1
aI2
aI2
aI4
aI5
aI5
aI5
aa(lp308
I-1
aI0
aI1
aI2
aI3
aI2
aI5
aI5
aI5
aa(lp309
I-1
aI0
aI1
aI2
aI3
aI2
aI5
aI5
aI7
aa(lp310
I-1
aI0
aI1
aI2
aI3
aI2
aI5
aI6
aI7
aa(lp311
I-1
aI0
aI1
aI2
aI3
aI2
aI5
aI6
aI6
aa(lp312
I-1
aI0
aI1
aI2
aI3
aI3
aI2
aI6
aI6
aa(lp313
I-1
aI0
aI1
aI2
aI3
aI4
aI2
aI6
aI6
aa(lp314
I-1
aI0
aI1
aI2
aI3
aI4
aI2
aI6
aI7
aa(lp315
I-1
aI0
aI1
aI2
aI2
aI2
aI5
aI5
aI5
aa(lp316
I-1
aI0
aI1
aI2
aI2
aI2
aI5
aI5
aI7
aa(lp317
I-1
aI0
aI1
aI2
aI2
aI2
aI5
aI6
aI7
aa(lp318
I-1
aI0
aI1
aI2
aI2
aI2
aI5
aI6
aI6
aa(lp319
I-1
aI0
aI1
aI2
aI2
aI4
aI2
aI6
aI6
aa(lp320
I-1
aI0
aI1
aI2
aI2
aI4
aI2
aI6
aI7
aa(lp321
I-1
aI0
aI1
aI2
aI3
aI2
aI5
aI2
aI7
aa(lp322
I-1
aI0
aI1
aI2
aI2
aI2
aI2
aI6
aI6
aa(lp323
I-1
aI0
aI1
aI2
aI2
aI2
aI2
aI6
aI7
aa(lp324
I-1
aI0
aI1
aI2
aI2
aI2
aI5
aI2
aI7
aa(lp325
I-1
aI0
aI1
aI2
aI2
aI2
aI2
aI2
aI7
aa(lp326
I-1
aI0
aI1
aI2
aI2
aI2
aI2
aI2
aI2
aa(lp327
I-1
aI0
aI0
aI2
aI2
aI2
aI2
aI2
aI2
aa(lp328
I-1
aI0
aI0
aI2
aI2
aI2
aI2
aI2
aI7
aa(lp329
I-1
aI0
aI0
aI2
aI2
aI2
aI5
aI2
aI7
aa(lp330
I-1
aI0
aI0
aI2
aI2
aI2
aI2
aI6
aI7
aa(lp331
I-1
aI0
aI0
aI2
aI2
aI2
aI2
aI6
aI6
aa(lp332
I-1
aI0
aI0
aI2
aI3
aI2
aI5
aI2
aI7
aa(lp333
I-1
aI0
aI0
aI2
aI2
aI4
aI2
aI6
aI7
aa(lp334
I-1
aI0
aI0
aI2
aI2
aI4
aI2
aI6
aI6
aa(lp335
I-1
aI0
aI0
aI2
aI2
aI2
aI5
aI6
aI6
aa(lp336
I-1
aI0
aI0
aI2
aI2
aI2
aI5
aI6
aI7
aa(lp337
I-1
aI0
aI0
aI2
aI2
aI2
aI5
aI5
aI7
aa(lp338
I-1
aI0
aI0
aI2
aI2
aI2
aI5
aI5
aI5
aa(lp339
I-1
aI0
aI0
aI2
aI3
aI4
aI2
aI6
aI7
aa(lp340
I-1
aI0
aI0
aI2
aI3
aI4
aI2
aI6
aI6
aa(lp341
I-1
aI0
aI0
aI2
aI3
aI3
aI2
aI6
aI6
aa(lp342
I-1
aI0
aI0
aI2
aI3
aI2
aI5
aI6
aI6
aa(lp343
I-1
aI0
aI0
aI2
aI3
aI2
aI5
aI6
aI7
aa(lp344
I-1
aI0
aI0
aI2
aI3
aI2
aI5
aI5
aI7
aa(lp345
I-1
aI0
aI0
aI2
aI3
aI2
aI5
aI5
aI5
aa(lp346
I-1
aI0
aI0
aI2
aI2
aI4
aI5
aI5
aI5
aa(lp347
I-1
aI0
aI0
aI2
aI2
aI4
aI5
aI5
aI7
aa(lp348
I-1
aI0
aI0
aI2
aI2
aI4
aI5
aI6
aI7
aa(lp349
I-1
aI0
aI0
aI2
aI2
aI4
aI5
aI6
aI6
aa(lp350
I-1
aI0
aI0
aI2
aI2
aI4
aI4
aI6
aI6
aa(lp351
I-1
aI0
aI0
aI2
aI2
aI4
aI4
aI6
aI7
aa(lp352
I-1
aI0
aI0
aI2
aI2
aI4
aI5
aI4
aI7
aa(lp353
I-1
aI0
aI0
aI2
aI2
aI4
aI4
aI4
aI7
aa(lp354
I-1
aI0
aI0
aI2
aI2
aI4
aI4
aI4
aI4
aa(lp355
I-1
aI0
aI0
aI2
aI3
aI4
aI4
aI4
aI4
aa(lp356
I-1
aI0
aI0
aI2
aI3
aI4
aI4
aI4
aI7
aa(lp357
I-1
aI0
aI0
aI2
aI3
aI4
aI5
aI4
aI7
aa(lp358
I-1
aI0
aI0
aI2
aI3
aI4
aI4
aI6
aI7
aa(lp359
I-1
aI0
aI0
aI2
aI3
aI4
aI4
aI6
aI6
aa(lp360
I-1
aI0
aI0
aI2
aI3
aI4
aI5
aI6
aI6
aa(lp361
I-1
aI0
aI0
aI2
aI3
aI4
aI5
aI6
aI7
aa(lp362
I-1
aI0
aI0
aI2
aI3
aI4
aI5
aI5
aI7
aa(lp363
I-1
aI0
aI0
aI2
aI3
aI4
aI5
aI5
aI5
aa(lp364
I-1
aI0
aI0
aI2
aI3
aI3
aI5
aI5
aI5
aa(lp365
I-1
aI0
aI0
aI2
aI3
aI3
aI5
aI5
aI7
aa(lp366
I-1
aI0
aI0
aI2
aI3
aI3
aI5
aI6
aI7
aa(lp367
I-1
aI0
aI0
aI2
aI3
aI3
aI5
aI6
aI6
aa(lp368
I-1
aI0
aI0
aI2
aI3
aI4
aI3
aI6
aI6
aa(lp369
I-1
aI0
aI0
aI2
aI3
aI4
aI3
aI6
aI7
aa(lp370
I-1
aI0
aI0
aI2
aI3
aI3
aI3
aI6
aI6
aa(lp371
I-1
aI0
aI0
aI2
aI3
aI3
aI3
aI6
aI7
aa(lp372
I-1
aI0
aI0
aI2
aI3
aI3
aI5
aI3
aI7
aa(lp373
I-1
aI0
aI0
aI2
aI3
aI3
aI3
aI3
aI7
aa(lp374
I-1
aI0
aI0
aI2
aI3
aI3
aI3
aI3
aI3
aa(lp375
I-1
aI0
aI1
aI0
aI3
aI3
aI3
aI3
aI3
aa(lp376
I-1
aI0
aI1
aI0
aI3
aI3
aI3
aI3
aI7
aa(lp377
I-1
aI0
aI1
aI0
aI3
aI3
aI5
aI3
aI7
aa(lp378
I-1
aI0
aI1
aI0
aI3
aI3
aI3
aI6
aI7
aa(lp379
I-1
aI0
aI1
aI0
aI3
aI3
aI3
aI6
aI6
aa(lp380
I-1
aI0
aI1
aI0
aI3
aI4
aI3
aI6
aI7
aa(lp381
I-1
aI0
aI1
aI0
aI3
aI4
aI3
aI6
aI6
aa(lp382
I-1
aI0
aI1
aI0
aI3
aI3
aI5
aI6
aI6
aa(lp383
I-1
aI0
aI1
aI0
aI3
aI3
aI5
aI6
aI7
aa(lp384
I-1
aI0
aI1
aI0
aI3
aI3
aI5
aI5
aI7
aa(lp385
I-1
aI0
aI1
aI0
aI3
aI3
aI5
aI5
aI5
aa(lp386
I-1
aI0
aI1
aI0
aI3
aI4
aI5
aI5
aI5
aa(lp387
I-1
aI0
aI1
aI0
aI3
aI4
aI5
aI5
aI7
aa(lp388
I-1
aI0
aI1
aI0
aI3
aI4
aI5
aI6
aI7
aa(lp389
I-1
aI0
aI1
aI0
aI3
aI4
aI5
aI6
aI6
aa(lp390
I-1
aI0
aI1
aI0
aI3
aI4
aI4
aI6
aI6
aa(lp391
I-1
aI0
aI1
aI0
aI3
aI4
aI4
aI6
aI7
aa(lp392
I-1
aI0
aI1
aI0
aI3
aI4
aI5
aI4
aI7
aa(lp393
I-1
aI0
aI1
aI0
aI3
aI4
aI4
aI4
aI7
aa(lp394
I-1
aI0
aI1
aI0
aI3
aI4
aI4
aI4
aI4
aa(lp395
I-1
aI0
aI1
aI1
aI0
aI4
aI4
aI4
aI4
aa(lp396
I-1
aI0
aI1
aI1
aI0
aI4
aI4
aI4
aI7
aa(lp397
I-1
aI0
aI1
aI1
aI0
aI4
aI5
aI4
aI7
aa(lp398
I-1
aI0
aI1
aI1
aI0
aI4
aI4
aI6
aI7
aa(lp399
I-1
aI0
aI1
aI1
aI0
aI4
aI4
aI6
aI6
aa(lp400
I-1
aI0
aI1
aI1
aI0
aI4
aI5
aI6
aI6
aa(lp401
I-1
aI0
aI1
aI1
aI0
aI4
aI5
aI6
aI7
aa(lp402
I-1
aI0
aI1
aI1
aI0
aI4
aI5
aI5
aI7
aa(lp403
I-1
aI0
aI1
aI1
aI0
aI4
aI5
aI5
aI5
aa(lp404
I-1
aI0
aI1
aI2
aI0
aI4
aI4
aI4
aI4
aa(lp405
I-1
aI0
aI1
aI2
aI0
aI4
aI4
aI4
aI7
aa(lp406
I-1
aI0
aI1
aI2
aI0
aI4
aI5
aI4
aI7
aa(lp407
I-1
aI0
aI1
aI2
aI0
aI4
aI4
aI6
aI7
aa(lp408
I-1
aI0
aI1
aI2
aI0
aI4
aI4
aI6
aI6
aa(lp409
I-1
aI0
aI1
aI2
aI0
aI4
aI5
aI6
aI6
aa(lp410
I-1
aI0
aI1
aI2
aI0
aI4
aI5
aI6
aI7
aa(lp411
I-1
aI0
aI1
aI2
aI0
aI4
aI5
aI5
aI7
aa(lp412
I-1
aI0
aI1
aI2
aI0
aI4
aI5
aI5
aI5
aa(lp413
I-1
aI0
aI1
aI1
aI1
aI0
aI5
aI5
aI5
aa(lp414
I-1
aI0
aI1
aI1
aI3
aI0
aI5
aI5
aI5
aa(lp415
I-1
aI0
aI1
aI1
aI3
aI0
aI5
aI5
aI7
aa(lp416
I-1
aI0
aI1
aI2
aI3
aI0
aI5
aI5
aI5
aa(lp417
I-1
aI0
aI1
aI2
aI3
aI0
aI5
aI5
aI7
aa(lp418
I-1
aI0
aI1
aI2
aI3
aI0
aI5
aI6
aI7
aa(lp419
I-1
aI0
aI1
aI2
aI2
aI0
aI5
aI5
aI5
aa(lp420
I-1
aI0
aI1
aI2
aI2
aI0
aI5
aI5
aI7
aa(lp421
I-1
aI0
aI1
aI2
aI2
aI0
aI5
aI6
aI7
aa(lp422
I-1
aI0
aI1
aI2
aI2
aI0
aI5
aI6
aI6
aa(lp423
I-1
aI0
aI0
aI0
aI3
aI3
aI3
aI3
aI3
aa(lp424
I-1
aI0
aI0
aI0
aI3
aI3
aI3
aI3
aI7
aa(lp425
I-1
aI0
aI0
aI0
aI3
aI3
aI5
aI3
aI7
aa(lp426
I-1
aI0
aI0
aI0
aI3
aI3
aI3
aI6
aI7
aa(lp427
I-1
aI0
aI0
aI0
aI3
aI3
aI3
aI6
aI6
aa(lp428
I-1
aI0
aI0
aI0
aI3
aI4
aI3
aI6
aI7
aa(lp429
I-1
aI0
aI0
aI0
aI3
aI4
aI3
aI6
aI6
aa(lp430
I-1
aI0
aI0
aI0
aI3
aI3
aI5
aI6
aI6
aa(lp431
I-1
aI0
aI0
aI0
aI3
aI3
aI5
aI6
aI7
aa(lp432
I-1
aI0
aI0
aI0
aI3
aI3
aI5
aI5
aI7
aa(lp433
I-1
aI0
aI0
aI0
aI3
aI3
aI5
aI5
aI5
aa(lp434
I-1
aI0
aI0
aI0
aI3
aI4
aI5
aI5
aI5
aa(lp435
I-1
aI0
aI0
aI0
aI3
aI4
aI5
aI5
aI7
aa(lp436
I-1
aI0
aI0
aI0
aI3
aI4
aI5
aI6
aI7
aa(lp437
I-1
aI0
aI0
aI0
aI3
aI4
aI5
aI6
aI6
aa(lp438
I-1
aI0
aI0
aI0
aI3
aI4
aI4
aI6
aI6
aa(lp439
I-1
aI0
aI0
aI0
aI3
aI4
aI4
aI6
aI7
aa(lp440
I-1
aI0
aI0
aI0
aI3
aI4
aI5
aI4
aI7
aa(lp441
I-1
aI0
aI0
aI0
aI3
aI4
aI4
aI4
aI7
aa(lp442
I-1
aI0
aI0
aI0
aI3
aI4
aI4
aI4
aI4
aa(lp443
I-1
aI0
aI0
aI2
aI0
aI4
aI4
aI4
aI4
aa(lp444
I-1
aI0
aI0
aI2
aI0
aI4
aI4
aI4
aI7
aa(lp445
I-1
aI0
aI0
aI2
aI0
aI4
aI5
aI4
aI7
aa(lp446
I-1
aI0
aI0
aI2
aI0
aI4
aI4
aI6
aI7
aa(lp447
I-1
aI0
aI0
aI2
aI0
aI4
aI4
aI6
aI6
aa(lp448
I-1
aI0
aI0
aI2
aI0
aI4
aI5
aI6
aI6
aa(lp449
I-1
aI0
aI0
aI2
aI0
aI4
aI5
aI6
aI7
aa(lp450
I-1
aI0
aI0
aI2
aI0
aI4
aI5
aI5
aI7
aa(lp451
I-1
aI0
aI0
aI2
aI0
aI4
aI5
aI5
aI5
aa(lp452
I-1
aI0
aI0
aI2
aI2
aI0
aI5
aI5
aI5
aa(lp453
I-1
aI0
aI0
aI2
aI2
aI0
aI5
aI5
aI7
aa(lp454
I-1
aI0
aI0
aI2
aI2
aI0
aI5
aI6
aI7
aa(lp455
I-1
aI0
aI0
aI2
aI2
aI0
aI5
aI6
aI6
aa(lp456
I-1
aI0
aI0
aI2
aI3
aI0
aI5
aI5
aI5
aa(lp457
I-1
aI0
aI0
aI2
aI3
aI0
aI5
aI5
aI7
aa(lp458
I-1
aI0
aI0
aI2
aI3
aI0
aI5
aI6
aI7
aa(lp459
I-1
aI0
aI0
aI2
aI3
aI0
aI5
aI6
aI6
aa(lp460
I-1
aI0
aI1
aI0
aI3
aI0
aI5
aI5
aI5
aa(lp461
I-1
aI0
aI1
aI0
aI3
aI0
aI5
aI5
aI7
aa(lp462
I-1
aI0
aI1
aI0
aI3
aI0
aI5
aI6
aI7
aa(lp463
I-1
aI0
aI1
aI0
aI3
aI0
aI5
aI6
aI6
aa(lp464
I-1
aI0
aI1
aI0
aI3
aI3
aI0
aI6
aI6
aa(lp465
I-1
aI0
aI1
aI0
aI3
aI4
aI0
aI6
aI6
aa(lp466
I-1
aI0
aI1
aI0
aI3
aI4
aI0
aI6
aI7
aa(lp467
I-1
aI0
aI0
aI0
aI0
aI4
aI4
aI4
aI4
aa(lp468
I-1
aI0
aI0
aI0
aI0
aI4
aI4
aI4
aI7
aa(lp469
I-1
aI0
aI0
aI0
aI0
aI4
aI5
aI4
aI7
aa(lp470
I-1
aI0
aI0
aI0
aI0
aI4
aI4
aI6
aI7
aa(lp471
I-1
aI0
aI0
aI0
aI0
aI4
aI4
aI6
aI6
aa(lp472
I-1
aI0
aI0
aI0
aI0
aI4
aI5
aI6
aI6
aa(lp473
I-1
aI0
aI0
aI0
aI0
aI4
aI5
aI6
aI7
aa(lp474
I-1
aI0
aI0
aI0
aI0
aI4
aI5
aI5
aI7
aa(lp475
I-1
aI0
aI0
aI0
aI0
aI4
aI5
aI5
aI5
aa(lp476
I-1
aI0
aI0
aI0
aI3
aI0
aI5
aI5
aI5
aa(lp477
I-1
aI0
aI0
aI0
aI3
aI0
aI5
aI5
aI7
aa(lp478
I-1
aI0
aI0
aI0
aI3
aI0
aI5
aI6
aI7
aa(lp479
I-1
aI0
aI0
aI0
aI3
aI0
aI5
aI6
aI6
aa(lp480
I-1
aI0
aI0
aI0
aI3
aI3
aI0
aI6
aI6
aa(lp481
I-1
aI0
aI0
aI0
aI3
aI4
aI0
aI6
aI6
aa(lp482
I-1
aI0
aI0
aI0
aI3
aI4
aI0
aI6
aI7
aa(lp483
I-1
aI0
aI0
aI2
aI0
aI4
aI0
aI6
aI6
aa(lp484
I-1
aI0
aI0
aI2
aI0
aI4
aI0
aI6
aI7
aa(lp485
I-1
aI0
aI1
aI0
aI3
aI0
aI5
aI0
aI7
aa(lp486
I-1
aI0
aI0
aI0
aI0
aI0
aI5
aI5
aI5
aa(lp487
I-1
aI0
aI0
aI0
aI0
aI0
aI5
aI5
aI7
aa(lp488
I-1
aI0
aI0
aI0
aI0
aI0
aI5
aI6
aI7
aa(lp489
I-1
aI0
aI0
aI0
aI0
aI0
aI5
aI6
aI6
aa(lp490
I-1
aI0
aI0
aI0
aI0
aI4
aI0
aI6
aI6
aa(lp491
I-1
aI0
aI0
aI0
aI0
aI4
aI0
aI6
aI7
aa(lp492
I-1
aI0
aI0
aI0
aI3
aI0
aI5
aI0
aI7
aa(lp493
I-1
aI0
aI0
aI0
aI0
aI0
aI0
aI6
aI6
aa(lp494
I-1
aI0
aI0
aI0
aI0
aI0
aI0
aI6
aI7
aa(lp495
I-1
aI0
aI0
aI0
aI0
aI0
aI5
aI0
aI7
aa(lp496
I-1
aI0
aI0
aI0
aI0
aI0
aI0
aI0
aI7
aa(lp497
I-1
aI0
aI0
aI0
aI0
aI0
aI0
aI0
aI0
aaa(lp498
(lp499
I-1
aI0
aI1
aI1
aI1
aI1
aI1
aI1
aI1
aI1
aa(lp500
I-1
aI0
aI1
aI1
aI1
aI1
aI1
aI1
aI1
aI8
aa(lp501
I-1
aI0
aI1
aI1
aI1
aI1
aI1
aI6
aI1
aI8
aa(lp502
I-1
aI0
aI1
aI1
aI1
aI1
aI1
aI1
aI7
aI8
aa(lp503
I-1
aI0
aI1
aI1
aI1
aI1
aI1
aI1
aI7
aI7
aa(lp504
I-1
aI0
aI1
aI1
aI1
aI4
aI1
aI6
aI1
aI8
aa(lp505
I-1
aI0
aI1
aI1
aI1
aI1
aI5
aI1
aI7
aI8
aa(lp506
I-1
aI0
aI1
aI1
aI1
aI1
aI5
aI1
aI7
aI7
aa(lp507
I-1
aI0
aI1
aI1
aI1
aI1
aI1
aI6
aI7
aI7
aa(lp508
I-1
aI0
aI1
aI1
aI1
aI1
aI1
aI6
aI7
aI8
aa(lp509
I-1
aI0
aI1
aI1
aI1
aI1
aI1
aI6
aI6
aI8
aa(lp510
I-1
aI0
aI1
aI1
aI1
aI1
aI1
aI6
aI6
aI6
aa(lp511
I-1
aI0
aI1
aI2
aI1
aI4
aI1
aI6
aI1
aI8
aa(lp512
I-1
aI0
aI1
aI1
aI3
aI1
aI5
aI1
aI7
aI8
aa(lp513
I-1
aI0
aI1
aI1
aI3
aI1
aI5
aI1
aI7
aI7
aa(lp514
I-1
aI0
aI1
aI1
aI1
aI4
aI5
aI1
aI7
aI8
aa(lp515
I-1
aI0
aI1
aI1
aI1
aI4
aI5
aI1
aI7
aI7
aa(lp516
I-1
aI0
aI1
aI1
aI1
aI4
aI4
aI1
aI7
aI7
aa(lp517
I-1
aI0
aI1
aI1
aI1
aI4
aI1
aI6
aI7
aI7
aa(lp518
I-1
aI0
aI1
aI1
aI1
aI4
aI1
aI6
aI7
aI8
aa(lp519
I-1
aI0
aI1
aI1
aI1
aI4
aI1
aI6
aI6
aI8
aa(lp520
I-1
aI0
aI1
aI1
aI1
aI4
aI1
aI6
aI6
aI6
aa(lp521
I-1
aI0
aI1
aI1
aI1
aI1
aI5
aI6
aI6
aI6
aa(lp522
I-1
aI0
aI1
aI1
aI1
aI1
aI5
aI6
aI6
aI8
aa(lp523
I-1
aI0
aI1
aI1
aI1
aI1
aI5
aI6
aI7
aI8
aa(lp524
I-1
aI0
aI1
aI1
aI1
aI1
aI5
aI6
aI7
aI7
aa(lp525
I-1
aI0
aI1
aI1
aI1
aI1
aI5
aI5
aI7
aI7
aa(lp526
I-1
aI0
aI1
aI1
aI1
aI1
aI5
aI5
aI7
aI8
aa(lp527
I-1
aI0
aI1
aI1
aI1
aI1
aI5
aI6
aI5
aI8
aa(lp528
I-1
aI0
aI1
aI1
aI1
aI1
aI5
aI5
aI5
aI8
aa(lp529
I-1
aI0
aI1
aI1
aI1
aI1
aI5
aI5
aI5
aI5
aa(lp530
I-1
aI0
aI1
aI2
aI1
aI4
aI5
aI1
aI7
aI8
aa(lp531
I-1
aI0
aI1
aI2
aI1
aI4
aI5
aI1
aI7
aI7
aa(lp532
I-1
aI0
aI1
aI2
aI1
aI4
aI4
aI1
aI7
aI7
aa(lp533
I-1
aI0
aI1
aI2
aI1
aI4
aI1
aI6
aI7
aI7
aa(lp534
I-1
aI0
aI1
aI2
aI1
aI4
aI1
aI6
aI7
aI8
aa(lp535
I-1
aI0
aI1
aI2
aI1
aI4
aI1
aI6
aI6
aI8
aa(lp536
I-1
aI0
aI1
aI2
aI1
aI4
aI1
aI6
aI6
aI6
aa(lp537
I-1
aI0
aI1
aI1
aI3
aI4
aI1
aI6
aI7
aI7
aa(lp538
I-1
aI0
aI1
aI1
aI3
aI4
aI1
aI6
aI7
aI8
aa(lp539
I-1
aI0
aI1
aI1
aI3
aI4
aI1
aI6
aI6
aI8
aa(lp540
I-1
aI0
aI1
aI1
aI3
aI4
aI1
aI6
aI6
aI6
aa(lp541
I-1
aI0
aI1
aI1
aI3
aI3
aI1
aI6
aI7
aI7
aa(lp542
I-1
aI0
aI1
aI1
aI3
aI3
aI1
aI6
aI7
aI8
aa(lp543
I-1
aI0
aI1
aI1
aI3
aI3
aI1
aI6
aI6
aI8
aa(lp544
I-1
aI0
aI1
aI1
aI3
aI3
aI1
aI6
aI6
aI6
aa(lp545
I-1
aI0
aI1
aI1
aI3
aI1
aI5
aI6
aI6
aI6
aa(lp546
I-1
aI0
aI1
aI1
aI3
aI1
aI5
aI6
aI6
aI8
aa(lp547
I-1
aI0
aI1
aI1
aI3
aI1
aI5
aI6
aI7
aI8
aa(lp548
I-1
aI0
aI1
aI1
aI3
aI1
aI5
aI6
aI7
aI7
aa(lp549
I-1
aI0
aI1
aI1
aI3
aI1
aI5
aI5
aI7
aI7
aa(lp550
I-1
aI0
aI1
aI1
aI3
aI1
aI5
aI5
aI7
aI8
aa(lp551
I-1
aI0
aI1
aI1
aI3
aI1
aI5
aI6
aI5
aI8
aa(lp552
I-1
aI0
aI1
aI1
aI3
aI1
aI5
aI5
aI5
aI8
aa(lp553
I-1
aI0
aI1
aI1
aI3
aI1
aI5
aI5
aI5
aI5
aa(lp554
I-1
aI0
aI1
aI1
aI1
aI4
aI5
aI5
aI5
aI5
aa(lp555
I-1
aI0
aI1
aI1
aI1
aI4
aI5
aI5
aI5
aI8
aa(lp556
I-1
aI0
aI1
aI1
aI1
aI4
aI5
aI6
aI5
aI8
aa(lp557
I-1
aI0
aI1
aI1
aI1
aI4
aI5
aI5
aI7
aI8
aa(lp558
I-1
aI0
aI1
aI1
aI1
aI4
aI5
aI5
aI7
aI7
aa(lp559
I-1
aI0
aI1
aI1
aI1
aI4
aI5
aI6
aI7
aI7
aa(lp560
I-1
aI0
aI1
aI1
aI1
aI4
aI5
aI6
aI7
aI8
aa(lp561
I-1
aI0
aI1
aI1
aI1
aI4
aI5
aI6
aI6
aI8
aa(lp562
I-1
aI0
aI1
aI1
aI1
aI4
aI5
aI6
aI6
aI6
aa(lp563
I-1
aI0
aI1
aI1
aI1
aI4
aI4
aI6
aI6
aI6
aa(lp564
I-1
aI0
aI1
aI1
aI1
aI4
aI4
aI6
aI6
aI8
aa(lp565
I-1
aI0
aI1
aI1
aI1
aI4
aI4
aI6
aI7
aI8
aa(lp566
I-1
aI0
aI1
aI1
aI1
aI4
aI4
aI6
aI7
aI7
aa(lp567
I-1
aI0
aI1
aI1
aI1
aI4
aI5
aI4
aI7
aI7
aa(lp568
I-1
aI0
aI1
aI1
aI1
aI4
aI5
aI4
aI7
aI8
aa(lp569
I-1
aI0
aI1
aI1
aI1
aI4
aI4
aI4
aI7
aI7
aa(lp570
I-1
aI0
aI1
aI1
aI1
aI4
aI4
aI4
aI7
aI8
aa(lp571
I-1
aI0
aI1
aI1
aI1
aI4
aI4
aI6
aI4
aI8
aa(lp572
I-1
aI0
aI1
aI1
aI1
aI4
aI4
aI4
aI4
aI8
aa(lp573
I-1
aI0
aI1
aI1
aI1
aI4
aI4
aI4
aI4
aI4
aa(lp574
I-1
aI0
aI1
aI2
aI3
aI3
aI1
aI6
aI7
aI7
aa(lp575
I-1
aI0
aI1
aI2
aI3
aI3
aI1
aI6
aI7
aI8
aa(lp576
I-1
aI0
aI1
aI2
aI3
aI3
aI1
aI6
aI6
aI8
aa(lp577
I-1
aI0
aI1
aI2
aI3
aI3
aI1
aI6
aI6
aI6
aa(lp578
I-1
aI0
aI1
aI2
aI3
aI4
aI1
aI6
aI7
aI8
aa(lp579
I-1
aI0
aI1
aI2
aI3
aI4
aI1
aI6
aI6
aI8
aa(lp580
I-1
aI0
aI1
aI2
aI3
aI4
aI1
aI6
aI6
aI6
aa(lp581
I-1
aI0
aI1
aI2
aI2
aI4
aI1
aI6
aI6
aI8
aa(lp582
I-1
aI0
aI1
aI2
aI2
aI4
aI1
aI6
aI6
aI6
aa(lp583
I-1
aI0
aI1
aI2
aI2
aI2
aI1
aI6
aI6
aI6
aa(lp584
I-1
aI0
aI1
aI2
aI3
aI1
aI5
aI6
aI6
aI6
aa(lp585
I-1
aI0
aI1
aI2
aI3
aI1
aI5
aI6
aI6
aI8
aa(lp586
I-1
aI0
aI1
aI2
aI3
aI1
aI5
aI6
aI7
aI8
aa(lp587
I-1
aI0
aI1
aI2
aI3
aI1
aI5
aI6
aI7
aI7
aa(lp588
I-1
aI0
aI1
aI2
aI3
aI1
aI5
aI5
aI7
aI7
aa(lp589
I-1
aI0
aI1
aI2
aI3
aI1
aI5
aI5
aI7
aI8
aa(lp590
I-1
aI0
aI1
aI2
aI3
aI1
aI5
aI6
aI5
aI8
aa(lp591
I-1
aI0
aI1
aI2
aI3
aI1
aI5
aI5
aI5
aI8
aa(lp592
I-1
aI0
aI1
aI2
aI3
aI1
aI5
aI5
aI5
aI5
aa(lp593
I-1
aI0
aI1
aI2
aI2
aI1
aI5
aI6
aI6
aI6
aa(lp594
I-1
aI0
aI1
aI2
aI2
aI1
aI5
aI6
aI6
aI8
aa(lp595
I-1
aI0
aI1
aI2
aI2
aI1
aI5
aI6
aI7
aI8
aa(lp596
I-1
aI0
aI1
aI2
aI2
aI1
aI5
aI6
aI7
aI7
aa(lp597
I-1
aI0
aI1
aI2
aI2
aI1
aI5
aI5
aI7
aI7
aa(lp598
I-1
aI0
aI1
aI2
aI2
aI1
aI5
aI5
aI7
aI8
aa(lp599
I-1
aI0
aI1
aI2
aI2
aI1
aI5
aI6
aI5
aI8
aa(lp600
I-1
aI0
aI1
aI2
aI2
aI1
aI5
aI5
aI5
aI8
aa(lp601
I-1
aI0
aI1
aI2
aI2
aI1
aI5
aI5
aI5
aI5
aa(lp602
I-1
aI0
aI1
aI2
aI1
aI4
aI5
aI5
aI5
aI5
aa(lp603
I-1
aI0
aI1
aI2
aI1
aI4
aI5
aI5
aI5
aI8
aa(lp604
I-1
aI0
aI1
aI2
aI1
aI4
aI5
aI6
aI5
aI8
aa(lp605
I-1
aI0
aI1
aI2
aI1
aI4
aI5
aI5
aI7
aI8
aa(lp606
I-1
aI0
aI1
aI2
aI1
aI4
aI5
aI5
aI7
aI7
aa(lp607
I-1
aI0
aI1
aI2
aI1
aI4
aI5
aI6
aI7
aI7
aa(lp608
I-1
aI0
aI1
aI2
aI1
aI4
aI5
aI6
aI7
aI8
aa(lp609
I-1
aI0
aI1
aI2
aI1
aI4
aI5
aI6
aI6
aI8
aa(lp610
I-1
aI0
aI1
aI2
aI1
aI4
aI5
aI6
aI6
aI6
aa(lp611
I-1
aI0
aI1
aI2
aI1
aI4
aI4
aI6
aI6
aI6
aa(lp612
I-1
aI0
aI1
aI2
aI1
aI4
aI4
aI6
aI6
aI8
aa(lp613
I-1
aI0
aI1
aI2
aI1
aI4
aI4
aI6
aI7
aI8
aa(lp614
I-1
aI0
aI1
aI2
aI1
aI4
aI4
aI6
aI7
aI7
aa(lp615
I-1
aI0
aI1
aI2
aI1
aI4
aI5
aI4
aI7
aI7
aa(lp616
I-1
aI0
aI1
aI2
aI1
aI4
aI5
aI4
aI7
aI8
aa(lp617
I-1
aI0
aI1
aI2
aI1
aI4
aI4
aI4
aI7
aI7
aa(lp618
I-1
aI0
aI1
aI2
aI1
aI4
aI4
aI4
aI7
aI8
aa(lp619
I-1
aI0
aI1
aI2
aI1
aI4
aI4
aI6
aI4
aI8
aa(lp620
I-1
aI0
aI1
aI2
aI1
aI4
aI4
aI4
aI4
aI8
aa(lp621
I-1
aI0
aI1
aI2
aI1
aI4
aI4
aI4
aI4
aI4
aa(lp622
I-1
aI0
aI1
aI1
aI3
aI4
aI4
aI4
aI4
aI4
aa(lp623
I-1
aI0
aI1
aI1
aI3
aI4
aI4
aI4
aI4
aI8
aa(lp624
I-1
aI0
aI1
aI1
aI3
aI4
aI4
aI6
aI4
aI8
aa(lp625
I-1
aI0
aI1
aI1
aI3
aI4
aI4
aI4
aI7
aI8
aa(lp626
I-1
aI0
aI1
aI1
aI3
aI4
aI4
aI4
aI7
aI7
aa(lp627
I-1
aI0
aI1
aI1
aI3
aI4
aI5
aI4
aI7
aI8
aa(lp628
I-1
aI0
aI1
aI1
aI3
aI4
aI5
aI4
aI7
aI7
aa(lp629
I-1
aI0
aI1
aI1
aI3
aI4
aI4
aI6
aI7
aI7
aa(lp630
I-1
aI0
aI1
aI1
aI3
aI4
aI4
aI6
aI7
aI8
aa(lp631
I-1
aI0
aI1
aI1
aI3
aI4
aI4
aI6
aI6
aI8
aa(lp632
I-1
aI0
aI1
aI1
aI3
aI4
aI4
aI6
aI6
aI6
aa(lp633
I-1
aI0
aI1
aI1
aI3
aI4
aI5
aI6
aI6
aI6
aa(lp634
I-1
aI0
aI1
aI1
aI3
aI4
aI5
aI6
aI6
aI8
aa(lp635
I-1
aI0
aI1
aI1
aI3
aI4
aI5
aI6
aI7
aI8
aa(lp636
I-1
aI0
aI1
aI1
aI3
aI4
aI5
aI6
aI7
aI7
aa(lp637
I-1
aI0
aI1
aI1
aI3
aI4
aI5
aI5
aI7
aI7
aa(lp638
I-1
aI0
aI1
aI1
aI3
aI4
aI5
aI5
aI7
aI8
aa(lp639
I-1
aI0
aI1
aI1
aI3
aI4
aI5
aI6
aI5
aI8
aa(lp640
I-1
aI0
aI1
aI1
aI3
aI4
aI5
aI5
aI5
aI8
aa(lp641
I-1
aI0
aI1
aI1
aI3
aI4
aI5
aI5
aI5
aI5
aa(lp642
I-1
aI0
aI1
aI1
aI3
aI3
aI5
aI5
aI5
aI5
aa(lp643
I-1
aI0
aI1
aI1
aI3
aI3
aI5
aI5
aI5
aI8
aa(lp644
I-1
aI0
aI1
aI1
aI3
aI3
aI5
aI6
aI5
aI8
aa(lp645
I-1
aI0
aI1
aI1
aI3
aI3
aI5
aI5
aI7
aI8
aa(lp646
I-1
aI0
aI1
aI1
aI3
aI3
aI5
aI5
aI7
aI7
aa(lp647
I-1
aI0
aI1
aI1
aI3
aI3
aI5
aI6
aI7
aI7
aa(lp648
I-1
aI0
aI1
aI1
aI3
aI3
aI5
aI6
aI7
aI8
aa(lp649
I-1
aI0
aI1
aI1
aI3
aI3
aI5
aI6
aI6
aI8
aa(lp650
I-1
aI0
aI1
aI1
aI3
aI3
aI5
aI6
aI6
aI6
aa(lp651
I-1
aI0
aI1
aI1
aI3
aI4
aI3
aI6
aI6
aI6
aa(lp652
I-1
aI0
aI1
aI1
aI3
aI4
aI3
aI6
aI6
aI8
aa(lp653
I-1
aI0
aI1
aI1
aI3
aI4
aI3
aI6
aI7
aI8
aa(lp654
I-1
aI0
aI1
aI1
aI3
aI4
aI3
aI6
aI7
aI7
aa(lp655
I-1
aI0
aI1
aI1
aI3
aI4
aI4
aI3
aI7
aI7
aa(lp656
I-1
aI0
aI1
aI1
aI3
aI4
aI5
aI3
aI7
aI7
aa(lp657
I-1
aI0
aI1
aI1
aI3
aI4
aI5
aI3
aI7
aI8
aa(lp658
I-1
aI0
aI1
aI1
aI3
aI3
aI3
aI6
aI6
aI6
aa(lp659
I-1
aI0
aI1
aI1
aI3
aI3
aI3
aI6
aI6
aI8
aa(lp660
I-1
aI0
aI1
aI1
aI3
aI3
aI3
aI6
aI7
aI8
aa(lp661
I-1
aI0
aI1
aI1
aI3
aI3
aI3
aI6
aI7
aI7
aa(lp662
I-1
aI0
aI1
aI1
aI3
aI3
aI5
aI3
aI7
aI7
aa(lp663
I-1
aI0
aI1
aI1
aI3
aI3
aI5
aI3
aI7
aI8
aa(lp664
I-1
aI0
aI1
aI1
aI3
aI4
aI3
aI6
aI3
aI8
aa(lp665
I-1
aI0
aI1
aI1
aI3
aI3
aI3
aI3
aI7
aI7
aa(lp666
I-1
aI0
aI1
aI1
aI3
aI3
aI3
aI3
aI7
aI8
aa(lp667
I-1
aI0
aI1
aI1
aI3
aI3
aI3
aI6
aI3
aI8
aa(lp668
I-1
aI0
aI1
aI1
aI3
aI3
aI3
aI3
aI3
aI8
aa(lp669
I-1
aI0
aI1
aI1
aI3
aI3
aI3
aI3
aI3
aI3
aa(lp670
I-1
aI0
aI1
aI2
aI3
aI3
aI3
aI3
aI3
aI3
aa(lp671
I-1
aI0
aI1
aI2
aI3
aI3
aI3
aI3
aI3
aI8
aa(lp672
I-1
aI0
aI1
aI2
aI3
aI3
aI3
aI6
aI3
aI8
aa(lp673
I-1
aI0
aI1
aI2
aI3
aI3
aI3
aI3
aI7
aI8
aa(lp674
I-1
aI0
aI1
aI2
aI3
aI3
aI3
aI3
aI7
aI7
aa(lp675
I-1
aI0
aI1
aI2
aI3
aI4
aI3
aI6
aI3
aI8
aa(lp676
I-1
aI0
aI1
aI2
aI3
aI3
aI5
aI3
aI7
aI8
aa(lp677
I-1
aI0
aI1
aI2
aI3
aI3
aI5
aI3
aI7
aI7
aa(lp678
I-1
aI0
aI1
aI2
aI3
aI3
aI3
aI6
aI7
aI7
aa(lp679
I-1
aI0
aI1
aI2
aI3
aI3
aI3
aI6
aI7
aI8
aa(lp680
I-1
aI0
aI1
aI2
aI3
aI3
aI3
aI6
aI6
aI8
aa(lp681
I-1
aI0
aI1
aI2
aI3
aI3
aI3
aI6
aI6
aI6
aa(lp682
I-1
aI0
aI1
aI2
aI3
aI4
aI5
aI3
aI7
aI8
aa(lp683
I-1
aI0
aI1
aI2
aI3
aI4
aI5
aI3
aI7
aI7
aa(lp684
I-1
aI0
aI1
aI2
aI3
aI4
aI4
aI3
aI7
aI7
aa(lp685
I-1
aI0
aI1
aI2
aI3
aI4
aI3
aI6
aI7
aI7
aa(lp686
I-1
aI0
aI1
aI2
aI3
aI4
aI3
aI6
aI7
aI8
aa(lp687
I-1
aI0
aI1
aI2
aI3
aI4
aI3
aI6
aI6
aI8
aa(lp688
I-1
aI0
aI1
aI2
aI3
aI4
aI3
aI6
aI6
aI6
aa(lp689
I-1
aI0
aI1
aI2
aI3
aI3
aI5
aI6
aI6
aI6
aa(lp690
I-1
aI0
aI1
aI2
aI3
aI3
aI5
aI6
aI6
aI8
aa(lp691
I-1
aI0
aI1
aI2
aI3
aI3
aI5
aI6
aI7
aI8
aa(lp692
I-1
aI0
aI1
aI2
aI3
aI3
aI5
aI6
aI7
aI7
aa(lp693
I-1
aI0
aI1
aI2
aI3
aI3
aI5
aI5
aI7
aI7
aa(lp694
I-1
aI0
aI1
aI2
aI3
aI3
aI5
aI5
aI7
aI8
aa(lp695
I-1
aI0
aI1
aI2
aI3
aI3
aI5
aI6
aI5
aI8
aa(lp696
I-1
aI0
aI1
aI2
aI3
aI3
aI5
aI5
aI5
aI8
aa(lp697
I-1
aI0
aI1
aI2
aI3
aI3
aI5
aI5
aI5
aI5
aa(lp698
I-1
aI0
aI1
aI2
aI3
aI4
aI5
aI5
aI5
aI5
aa(lp699
I-1
aI0
aI1
aI2
aI3
aI4
aI5
aI5
aI5
aI8
aa(lp700
I-1
aI0
aI1
aI2
aI3
aI4
aI5
aI6
aI5
aI8
aa(lp701
I-1
aI0
aI1
aI2
aI3
aI4
aI5
aI5
aI7
aI8
aa(lp702
I-1
aI0
aI1
aI2
aI3
aI4
aI5
aI5
aI7
aI7
aa(lp703
I-1
aI0
aI1
aI2
aI3
aI4
aI5
aI6
aI7
aI7
aa(lp704
I-1
aI0
aI1
aI2
aI3
aI4
aI5
aI6
aI7
aI8
aa(lp705
I-1
aI0
aI1
aI2
aI3
aI4
aI5
aI6
aI6
aI8
aa(lp706
I-1
aI0
aI1
aI2
aI3
aI4
aI5
aI6
aI6
aI6
aa(lp707
I-1
aI0
aI1
aI2
aI3
aI4
aI4
aI6
aI6
aI6
aa(lp708
I-1
aI0
aI1
aI2
aI3
aI4
aI4
aI6
aI6
aI8
aa(lp709
I-1
aI0
aI1
aI2
aI3
aI4
aI4
aI6
aI7
aI8
aa(lp710
I-1
aI0
aI1
aI2
aI3
aI4
aI4
aI6
aI7
aI7
aa(lp711
I-1
aI0
aI1
aI2
aI3
aI4
aI5
aI4
aI7
aI7
aa(lp712
I-1
aI0
aI1
aI2
aI3
aI4
aI5
aI4
aI7
aI8
aa(lp713
I-1
aI0
aI1
aI2
aI3
aI4
aI4
aI4
aI7
aI7
aa(lp714
I-1
aI0
aI1
aI2
aI3
aI4
aI4
aI4
aI7
aI8
aa(lp715
I-1
aI0
aI1
aI2
aI3
aI4
aI4
aI6
aI4
aI8
aa(lp716
I-1
aI0
aI1
aI2
aI3
aI4
aI4
aI4
aI4
aI8
aa(lp717
I-1
aI0
aI1
aI2
aI3
aI4
aI4
aI4
aI4
aI4
aa(lp718
I-1
aI0
aI1
aI2
aI2
aI4
aI4
aI4
aI4
aI4
aa(lp719
I-1
aI0
aI1
aI2
aI2
aI4
aI4
aI4
aI4
aI8
aa(lp720
I-1
aI0
aI1
aI2
aI2
aI4
aI4
aI6
aI4
aI8
aa(lp721
I-1
aI0
aI1
aI2
aI2
aI4
aI4
aI4
aI7
aI8
aa(lp722
I-1
aI0
aI1
aI2
aI2
aI4
aI4
aI4
aI7
aI7
aa(lp723
I-1
aI0
aI1
aI2
aI2
aI4
aI5
aI4
aI7
aI8
aa(lp724
I-1
aI0
aI1
aI2
aI2
aI4
aI5
aI4
aI7
aI7
aa(lp725
I-1
aI0
aI1
aI2
aI2
aI4
aI4
aI6
aI7
aI7
aa(lp726
I-1
aI0
aI1
aI2
aI2
aI4
aI4
aI6
aI7
aI8
aa(lp727
I-1
aI0
aI1
aI2
aI2
aI4
aI4
aI6
aI6
aI8
aa(lp728
I-1
aI0
aI1
aI2
aI2
aI4
aI4
aI6
aI6
aI6
aa(lp729
I-1
aI0
aI1
aI2
aI2
aI4
aI5
aI6
aI6
aI6
aa(lp730
I-1
aI0
aI1
aI2
aI2
aI4
aI5
aI6
aI6
aI8
aa(lp731
I-1
aI0
aI1
aI2
aI2
aI4
aI5
aI6
aI7
aI8
aa(lp732
I-1
aI0
aI1
aI2
aI2
aI4
aI5
aI6
aI7
aI7
aa(lp733
I-1
aI0
aI1
aI2
aI2
aI4
aI5
aI5
aI7
aI7
aa(lp734
I-1
aI0
aI1
aI2
aI2
aI4
aI5
aI5
aI7
aI8
aa(lp735
I-1
aI0
aI1
aI2
aI2
aI4
aI5
aI6
aI5
aI8
aa(lp736
I-1
aI0
aI1
aI2
aI2
aI4
aI5
aI5
aI5
aI8
aa(lp737
I-1
aI0
aI1
aI2
aI2
aI4
aI5
aI5
aI5
aI5
aa(lp738
I-1
aI0
aI1
aI2
aI3
aI2
aI5
aI5
aI5
aI5
aa(lp739
I-1
aI0
aI1
aI2
aI3
aI2
aI5
aI5
aI5
aI8
aa(lp740
I-1
aI0
aI1
aI2
aI3
aI2
aI5
aI6
aI5
aI8
aa(lp741
I-1
aI0
aI1
aI2
aI3
aI2
aI5
aI5
aI7
aI8
aa(lp742
I-1
aI0
aI1
aI2
aI3
aI2
aI5
aI5
aI7
aI7
aa(lp743
I-1
aI0
aI1
aI2
aI3
aI2
aI5
aI6
aI7
aI7
aa(lp744
I-1
aI0
aI1
aI2
aI3
aI2
aI5
aI6
aI7
aI8
aa(lp745
I-1
aI0
aI1
aI2
aI3
aI2
aI5
aI6
aI6
aI8
aa(lp746
I-1
aI0
aI1
aI2
aI3
aI2
aI5
aI6
aI6
aI6
aa(lp747
I-1
aI0
aI1
aI2
aI3
aI3
aI2
aI6
aI6
aI6
aa(lp748
I-1
aI0
aI1
aI2
aI3
aI3
aI2
aI6
aI6
aI8
aa(lp749
I-1
aI0
aI1
aI2
aI3
aI3
aI2
aI6
aI7
aI8
aa(lp750
I-1
aI0
aI1
aI2
aI3
aI3
aI2
aI6
aI7
aI7
aa(lp751
I-1
aI0
aI1
aI2
aI3
aI4
aI2
aI6
aI6
aI6
aa(lp752
I-1
aI0
aI1
aI2
aI3
aI4
aI2
aI6
aI6
aI8
aa(lp753
I-1
aI0
aI1
aI2
aI3
aI4
aI2
aI6
aI7
aI8
aa(lp754
I-1
aI0
aI1
aI2
aI3
aI4
aI2
aI6
aI7
aI7
aa(lp755
I-1
aI0
aI1
aI2
aI2
aI2
aI5
aI5
aI5
aI5
aa(lp756
I-1
aI0
aI1
aI2
aI2
aI2
aI5
aI5
aI5
aI8
aa(lp757
I-1
aI0
aI1
aI2
aI2
aI2
aI5
aI6
aI5
aI8
aa(lp758
I-1
aI0
aI1
aI2
aI2
aI2
aI5
aI5
aI7
aI8
aa(lp759
I-1
aI0
aI1
aI2
aI2
aI2
aI5
aI5
aI7
aI7
aa(lp760
I-1
aI0
aI1
aI2
aI2
aI2
aI5
aI6
aI7
aI7
aa(lp761
I-1
aI0
aI1
aI2
aI2
aI2
aI5
aI6
aI7
aI8
aa(lp762
I-1
aI0
aI1
aI2
aI2
aI2
aI5
aI6
aI6
aI8
aa(lp763
I-1
aI0
aI1
aI2
aI2
aI2
aI5
aI6
aI6
aI6
aa(lp764
I-1
aI0
aI1
aI2
aI2
aI4
aI2
aI6
aI6
aI6
aa(lp765
I-1
aI0
aI1
aI2
aI2
aI4
aI2
aI6
aI6
aI8
aa(lp766
I-1
aI0
aI1
aI2
aI2
aI4
aI2
aI6
aI7
aI8
aa(lp767
I-1
aI0
aI1
aI2
aI2
aI4
aI2
aI6
aI7
aI7
aa(lp768
I-1
aI0
aI1
aI2
aI2
aI4
aI4
aI2
aI7
aI7
aa(lp769
I-1
aI0
aI1
aI2
aI2
aI4
aI5
aI2
aI7
aI7
aa(lp770
I-1
aI0
aI1
aI2
aI2
aI4
aI5
aI2
aI7
aI8
aa(lp771
I-1
aI0
aI1
aI2
aI3
aI2
aI5
aI2
aI7
aI7
aa(lp772
I-1
aI0
aI1
aI2
aI3
aI2
aI5
aI2
aI7
aI8
aa(lp773
I-1
aI0
aI1
aI2
aI2
aI2
aI2
aI6
aI6
aI6
aa(lp774
I-1
aI0
aI1
aI2
aI2
aI2
aI2
aI6
aI6
aI8
aa(lp775
I-1
aI0
aI1
aI2
aI2
aI2
aI2
aI6
aI7
aI8
aa(lp776
I-1
aI0
aI1
aI2
aI2
aI2
aI2
aI6
aI7
aI7
aa(lp777
I-1
aI0
aI1
aI2
aI2
aI2
aI5
aI2
aI7
aI7
aa(lp778
I-1
aI0
aI1
aI2
aI2
aI2
aI5
aI2
aI7
aI8
aa(lp779
I-1
aI0
aI1
aI2
aI2
aI4
aI2
aI6
aI2
aI8
aa(lp780
I-1
aI0
aI1
aI2
aI2
aI2
aI2
aI2
aI7
aI7
aa(lp781
I-1
aI0
aI1
aI2
aI2
aI2
aI2
aI2
aI7
aI8
aa(lp782
I-1
aI0
aI1
aI2
aI2
aI2
aI2
aI6
aI2
aI8
aa(lp783
I-1
aI0
aI1
aI2
aI2
aI2
aI2
aI2
aI2
aI8
aa(lp784
I-1
aI0
aI1
aI2
aI2
aI2
aI2
aI2
aI2
aI2
aa(lp785
I-1
aI0
aI0
aI2
aI2
aI2
aI2
aI2
aI2
aI2
aa(lp786
I-1
aI0
aI0
aI2
aI2
aI2
aI2
aI2
aI2
aI8
aa(lp787
I-1
aI0
aI0
aI2
aI2
aI2
aI2
aI6
aI2
aI8
aa(lp788
I-1
aI0
aI0
aI2
aI2
aI2
aI2
aI2
aI7
aI8
aa(lp789
I-1
aI0
aI0
aI2
aI2
aI2
aI2
aI2
aI7
aI7
aa(lp790
I-1
aI0
aI0
aI2
aI2
aI4
aI2
aI6
aI2
aI8
aa(lp791
I-1
aI0
aI0
aI2
aI2
aI2
aI5
aI2
aI7
aI8
aa(lp792
I-1
aI0
aI0
aI2
aI2
aI2
aI5
aI2
aI7
aI7
aa(lp793
I-1
aI0
aI0
aI2
aI2
aI2
aI2
aI6
aI7
aI7
aa(lp794
I-1
aI0
aI0
aI2
aI2
aI2
aI2
aI6
aI7
aI8
aa(lp795
I-1
aI0
aI0
aI2
aI2
aI2
aI2
aI6
aI6
aI8
aa(lp796
I-1
aI0
aI0
aI2
aI2
aI2
aI2
aI6
aI6
aI6
aa(lp797
I-1
aI0
aI0
aI2
aI3
aI2
aI5
aI2
aI7
aI8
aa(lp798
I-1
aI0
aI0
aI2
aI3
aI2
aI5
aI2
aI7
aI7
aa(lp799
I-1
aI0
aI0
aI2
aI2
aI4
aI5
aI2
aI7
aI8
aa(lp800
I-1
aI0
aI0
aI2
aI2
aI4
aI5
aI2
aI7
aI7
aa(lp801
I-1
aI0
aI0
aI2
aI2
aI4
aI4
aI2
aI7
aI7
aa(lp802
I-1
aI0
aI0
aI2
aI2
aI4
aI2
aI6
aI7
aI7
aa(lp803
I-1
aI0
aI0
aI2
aI2
aI4
aI2
aI6
aI7
aI8
aa(lp804
I-1
aI0
aI0
aI2
aI2
aI4
aI2
aI6
aI6
aI8
aa(lp805
I-1
aI0
aI0
aI2
aI2
aI4
aI2
aI6
aI6
aI6
aa(lp806
I-1
aI0
aI0
aI2
aI2
aI2
aI5
aI6
aI6
aI6
aa(lp807
I-1
aI0
aI0
aI2
aI2
aI2
aI5
aI6
aI6
aI8
aa(lp808
I-1
aI0
aI0
aI2
aI2
aI2
aI5
aI6
aI7
aI8
aa(lp809
I-1
aI0
aI0
aI2
aI2
aI2
aI5
aI6
aI7
aI7
aa(lp810
I-1
aI0
aI0
aI2
aI2
aI2
aI5
aI5
aI7
aI7
aa(lp811
I-1
aI0
aI0
aI2
aI2
aI2
aI5
aI5
aI7
aI8
aa(lp812
I-1
aI0
aI0
aI2
aI2
aI2
aI5
aI6
aI5
aI8
aa(lp813
I-1
aI0
aI0
aI2
aI2
aI2
aI5
aI5
aI5
aI8
aa(lp814
I-1
aI0
aI0
aI2
aI2
aI2
aI5
aI5
aI5
aI5
aa(lp815
I-1
aI0
aI0
aI2
aI3
aI4
aI2
aI6
aI7
aI7
aa(lp816
I-1
aI0
aI0
aI2
aI3
aI4
aI2
aI6
aI7
aI8
aa(lp817
I-1
aI0
aI0
aI2
aI3
aI4
aI2
aI6
aI6
aI8
aa(lp818
I-1
aI0
aI0
aI2
aI3
aI4
aI2
aI6
aI6
aI6
aa(lp819
I-1
aI0
aI0
aI2
aI3
aI3
aI2
aI6
aI7
aI7
aa(lp820
I-1
aI0
aI0
aI2
aI3
aI3
aI2
aI6
aI7
aI8
aa(lp821
I-1
aI0
aI0
aI2
aI3
aI3
aI2
aI6
aI6
aI8
aa(lp822
I-1
aI0
aI0
aI2
aI3
aI3
aI2
aI6
aI6
aI6
aa(lp823
I-1
aI0
aI0
aI2
aI3
aI2
aI5
aI6
aI6
aI6
aa(lp824
I-1
aI0
aI0
aI2
aI3
aI2
aI5
aI6
aI6
aI8
aa(lp825
I-1
aI0
aI0
aI2
aI3
aI2
aI5
aI6
aI7
aI8
aa(lp826
I-1
aI0
aI0
aI2
aI3
aI2
aI5
aI6
aI7
aI7
aa(lp827
I-1
aI0
aI0
aI2
aI3
aI2
aI5
aI5
aI7
aI7
aa(lp828
I-1
aI0
aI0
aI2
aI3
aI2
aI5
aI5
aI7
aI8
aa(lp829
I-1
aI0
aI0
aI2
aI3
aI2
aI5
aI6
aI5
aI8
aa(lp830
I-1
aI0
aI0
aI2
aI3
aI2
aI5
aI5
aI5
aI8
aa(lp831
I-1
aI0
aI0
aI2
aI3
aI2
aI5
aI5
aI5
aI5
aa(lp832
I-1
aI0
aI0
aI2
aI2
aI4
aI5
aI5
aI5
aI5
aa(lp833
I-1
aI0
aI0
aI2
aI2
aI4
aI5
aI5
aI5
aI8
aa(lp834
I-1
aI0
aI0
aI2
aI2
aI4
aI5
aI6
aI5
aI8
aa(lp835
I-1
aI0
aI0
aI2
aI2
aI4
aI5
aI5
aI7
aI8
aa(lp836
I-1
aI0
aI0
aI2
aI2
aI4
aI5
aI5
aI7
aI7
aa(lp837
I-1
aI0
aI0
aI2
aI2
aI4
aI5
aI6
aI7
aI7
aa(lp838
I-1
aI0
aI0
aI2
aI2
aI4
aI5
aI6
aI7
aI8
aa(lp839
I-1
aI0
aI0
aI2
aI2
aI4
aI5
aI6
aI6
aI8
aa(lp840
I-1
aI0
aI0
aI2
aI2
aI4
aI5
aI6
aI6
aI6
aa(lp841
I-1
aI0
aI0
aI2
aI2
aI4
aI4
aI6
aI6
aI6
aa(lp842
I-1
aI0
aI0
aI2
aI2
aI4
aI4
aI6
aI6
aI8
aa(lp843
I-1
aI0
aI0
aI2
aI2
aI4
aI4
aI6
aI7
aI8
aa(lp844
I-1
aI0
aI0
aI2
aI2
aI4
aI4
aI6
aI7
aI7
aa(lp845
I-1
aI0
aI0
aI2
aI2
aI4
aI5
aI4
aI7
aI7
aa(lp846
I-1
aI0
aI0
aI2
aI2
aI4
aI5
aI4
aI7
aI8
aa(lp847
I-1
aI0
aI0
aI2
aI2
aI4
aI4
aI4
aI7
aI7
aa(lp848
I-1
aI0
aI0
aI2
aI2
aI4
aI4
aI4
aI7
aI8
aa(lp849
I-1
aI0
aI0
aI2
aI2
aI4
aI4
aI6
aI4
aI8
aa(lp850
I-1
aI0
aI0
aI2
aI2
aI4
aI4
aI4
aI4
aI8
aa(lp851
I-1
aI0
aI0
aI2
aI2
aI4
aI4
aI4
aI4
aI4
aa(lp852
I-1
aI0
aI0
aI2
aI3
aI4
aI4
aI4
aI4
aI4
aa(lp853
I-1
aI0
aI0
aI2
aI3
aI4
aI4
aI4
aI4
aI8
aa(lp854
I-1
aI0
aI0
aI2
aI3
aI4
aI4
aI6
aI4
aI8
aa(lp855
I-1
aI0
aI0
aI2
aI3
aI4
aI4
aI4
aI7
aI8
aa(lp856
I-1
aI0
aI0
aI2
aI3
aI4
aI4
aI4
aI7
aI7
aa(lp857
I-1
aI0
aI0
aI2
aI3
aI4
aI5
aI4
aI7
aI8
aa(lp858
I-1
aI0
aI0
aI2
aI3
aI4
aI5
aI4
aI7
aI7
aa(lp859
I-1
aI0
aI0
aI2
aI3
aI4
aI4
aI6
aI7
aI7
aa(lp860
I-1
aI0
aI0
aI2
aI3
aI4
aI4
aI6
aI7
aI8
aa(lp861
I-1
aI0
aI0
aI2
aI3
aI4
aI4
aI6
aI6
aI8
aa(lp862
I-1
aI0
aI0
aI2
aI3
aI4
aI4
aI6
aI6
aI6
aa(lp863
I-1
aI0
aI0
aI2
aI3
aI4
aI5
aI6
aI6
aI6
aa(lp864
I-1
aI0
aI0
aI2
aI3
aI4
aI5
aI6
aI6
aI8
aa(lp865
I-1
aI0
aI0
aI2
aI3
aI4
aI5
aI6
aI7
aI8
aa(lp866
I-1
aI0
aI0
aI2
aI3
aI4
aI5
aI6
aI7
aI7
aa(lp867
I-1
aI0
aI0
aI2
aI3
aI4
aI5
aI5
aI7
aI7
aa(lp868
I-1
aI0
aI0
aI2
aI3
aI4
aI5
aI5
aI7
aI8
aa(lp869
I-1
aI0
aI0
aI2
aI3
aI4
aI5
aI6
aI5
aI8
aa(lp870
I-1
aI0
aI0
aI2
aI3
aI4
aI5
aI5
aI5
aI8
aa(lp871
I-1
aI0
aI0
aI2
aI3
aI4
aI5
aI5
aI5
aI5
aa(lp872
I-1
aI0
aI0
aI2
aI3
aI3
aI5
aI5
aI5
aI5
aa(lp873
I-1
aI0
aI0
aI2
aI3
aI3
aI5
aI5
aI5
aI8
aa(lp874
I-1
aI0
aI0
aI2
aI3
aI3
aI5
aI6
aI5
aI8
aa(lp875
I-1
aI0
aI0
aI2
aI3
aI3
aI5
aI5
aI7
aI8
aa(lp876
I-1
aI0
aI0
aI2
aI3
aI3
aI5
aI5
aI7
aI7
aa(lp877
I-1
aI0
aI0
aI2
aI3
aI3
aI5
aI6
aI7
aI7
aa(lp878
I-1
aI0
aI0
aI2
aI3
aI3
aI5
aI6
aI7
aI8
aa(lp879
I-1
aI0
aI0
aI2
aI3
aI3
aI5
aI6
aI6
aI8
aa(lp880
I-1
aI0
aI0
aI2
aI3
aI3
aI5
aI6
aI6
aI6
aa(lp881
I-1
aI0
aI0
aI2
aI3
aI4
aI3
aI6
aI6
aI6
aa(lp882
I-1
aI0
aI0
aI2
aI3
aI4
aI3
aI6
aI6
aI8
aa(lp883
I-1
aI0
aI0
aI2
aI3
aI4
aI3
aI6
aI7
aI8
aa(lp884
I-1
aI0
aI0
aI2
aI3
aI4
aI3
aI6
aI7
aI7
aa(lp885
I-1
aI0
aI0
aI2
aI3
aI4
aI4
aI3
aI7
aI7
aa(lp886
I-1
aI0
aI0
aI2
aI3
aI4
aI5
aI3
aI7
aI7
aa(lp887
I-1
aI0
aI0
aI2
aI3
aI4
aI5
aI3
aI7
aI8
aa(lp888
I-1
aI0
aI0
aI2
aI3
aI3
aI3
aI6
aI6
aI6
aa(lp889
I-1
aI0
aI0
aI2
aI3
aI3
aI3
aI6
aI6
aI8
aa(lp890
I-1
aI0
aI0
aI2
aI3
aI3
aI3
aI6
aI7
aI8
aa(lp891
I-1
aI0
aI0
aI2
aI3
aI3
aI3
aI6
aI7
aI7
aa(lp892
I-1
aI0
aI0
aI2
aI3
aI3
aI5
aI3
aI7
aI7
aa(lp893
I-1
aI0
aI0
aI2
aI3
aI3
aI5
aI3
aI7
aI8
aa(lp894
I-1
aI0
aI0
aI2
aI3
aI4
aI3
aI6
aI3
aI8
aa(lp895
I-1
aI0
aI0
aI2
aI3
aI3
aI3
aI3
aI7
aI7
aa(lp896
I-1
aI0
aI0
aI2
aI3
aI3
aI3
aI3
aI7
aI8
aa(lp897
I-1
aI0
aI0
aI2
aI3
aI3
aI3
aI6
aI3
aI8
aa(lp898
I-1
aI0
aI0
aI2
aI3
aI3
aI3
aI3
aI3
aI8
aa(lp899
I-1
aI0
aI0
aI2
aI3
aI3
aI3
aI3
aI3
aI3
aa(lp900
I-1
aI0
aI1
aI0
aI3
aI3
aI3
aI3
aI3
aI3
aa(lp901
I-1
aI0
aI1
aI0
aI3
aI3
aI3
aI3
aI3
aI8
aa(lp902
I-1
aI0
aI1
aI0
aI3
aI3
aI3
aI6
aI3
aI8
aa(lp903
I-1
aI0
aI1
aI0
aI3
aI3
aI3
aI3
aI7
aI8
aa(lp904
I-1
aI0
aI1
aI0
aI3
aI3
aI3
aI3
aI7
aI7
aa(lp905
I-1
aI0
aI1
aI0
aI3
aI4
aI3
aI6
aI3
aI8
aa(lp906
I-1
aI0
aI1
aI0
aI3
aI3
aI5
aI3
aI7
aI8
aa(lp907
I-1
aI0
aI1
aI0
aI3
aI3
aI5
aI3
aI7
aI7
aa(lp908
I-1
aI0
aI1
aI0
aI3
aI3
aI3
aI6
aI7
aI7
aa(lp909
I-1
aI0
aI1
aI0
aI3
aI3
aI3
aI6
aI7
aI8
aa(lp910
I-1
aI0
aI1
aI0
aI3
aI3
aI3
aI6
aI6
aI8
aa(lp911
I-1
aI0
aI1
aI0
aI3
aI3
aI3
aI6
aI6
aI6
aa(lp912
I-1
aI0
aI1
aI0
aI3
aI4
aI5
aI3
aI7
aI8
aa(lp913
I-1
aI0
aI1
aI0
aI3
aI4
aI5
aI3
aI7
aI7
aa(lp914
I-1
aI0
aI1
aI0
aI3
aI4
aI4
aI3
aI7
aI7
aa(lp915
I-1
aI0
aI1
aI0
aI3
aI4
aI3
aI6
aI7
aI7
aa(lp916
I-1
aI0
aI1
aI0
aI3
aI4
aI3
aI6
aI7
aI8
aa(lp917
I-1
aI0
aI1
aI0
aI3
aI4
aI3
aI6
aI6
aI8
aa(lp918
I-1
aI0
aI1
aI0
aI3
aI4
aI3
aI6
aI6
aI6
aa(lp919
I-1
aI0
aI1
aI0
aI3
aI3
aI5
aI6
aI6
aI6
aa(lp920
I-1
aI0
aI1
aI0
aI3
aI3
aI5
aI6
aI6
aI8
aa(lp921
I-1
aI0
aI1
aI0
aI3
aI3
aI5
aI6
aI7
aI8
aa(lp922
I-1
aI0
aI1
aI0
aI3
aI3
aI5
aI6
aI7
aI7
aa(lp923
I-1
aI0
aI1
aI0
aI3
aI3
aI5
aI5
aI7
aI7
aa(lp924
I-1
aI0
aI1
aI0
aI3
aI3
aI5
aI5
aI7
aI8
aa(lp925
I-1
aI0
aI1
aI0
aI3
aI3
aI5
aI6
aI5
aI8
aa(lp926
I-1
aI0
aI1
aI0
aI3
aI3
aI5
aI5
aI5
aI8
aa(lp927
I-1
aI0
aI1
aI0
aI3
aI3
aI5
aI5
aI5
aI5
aa(lp928
I-1
aI0
aI1
aI0
aI3
aI4
aI5
aI5
aI5
aI5
aa(lp929
I-1
aI0
aI1
aI0
aI3
aI4
aI5
aI5
aI5
aI8
aa(lp930
I-1
aI0
aI1
aI0
aI3
aI4
aI5
aI6
aI5
aI8
aa(lp931
I-1
aI0
aI1
aI0
aI3
aI4
aI5
aI5
aI7
aI8
aa(lp932
I-1
aI0
aI1
aI0
aI3
aI4
aI5
aI5
aI7
aI7
aa(lp933
I-1
aI0
aI1
aI0
aI3
aI4
aI5
aI6
aI7
aI7
aa(lp934
I-1
aI0
aI1
aI0
aI3
aI4
aI5
aI6
aI7
aI8
aa(lp935
I-1
aI0
aI1
aI0
aI3
aI4
aI5
aI6
aI6
aI8
aa(lp936
I-1
aI0
aI1
aI0
aI3
aI4
aI5
aI6
aI6
aI6
aa(lp937
I-1
aI0
aI1
aI0
aI3
aI4
aI4
aI6
aI6
aI6
aa(lp938
I-1
aI0
aI1
aI0
aI3
aI4
aI4
aI6
aI6
aI8
aa(lp939
I-1
aI0
aI1
aI0
aI3
aI4
aI4
aI6
aI7
aI8
aa(lp940
I-1
aI0
aI1
aI0
aI3
aI4
aI4
aI6
aI7
aI7
aa(lp941
I-1
aI0
aI1
aI0
aI3
aI4
aI5
aI4
aI7
aI7
aa(lp942
I-1
aI0
aI1
aI0
aI3
aI4
aI5
aI4
aI7
aI8
aa(lp943
I-1
aI0
aI1
aI0
aI3
aI4
aI4
aI4
aI7
aI7
aa(lp944
I-1
aI0
aI1
aI0
aI3
aI4
aI4
aI4
aI7
aI8
aa(lp945
I-1
aI0
aI1
aI0
aI3
aI4
aI4
aI6
aI4
aI8
aa(lp946
I-1
aI0
aI1
aI0
aI3
aI4
aI4
aI4
aI4
aI8
aa(lp947
I-1
aI0
aI1
aI0
aI3
aI4
aI4
aI4
aI4
aI4
aa(lp948
I-1
aI0
aI1
aI1
aI0
aI4
aI4
aI4
aI4
aI4
aa(lp949
I-1
aI0
aI1
aI1
aI0
aI4
aI4
aI4
aI4
aI8
aa(lp950
I-1
aI0
aI1
aI1
aI0
aI4
aI4
aI6
aI4
aI8
aa(lp951
I-1
aI0
aI1
aI1
aI0
aI4
aI4
aI4
aI7
aI8
aa(lp952
I-1
aI0
aI1
aI1
aI0
aI4
aI4
aI4
aI7
aI7
aa(lp953
I-1
aI0
aI1
aI1
aI0
aI4
aI5
aI4
aI7
aI8
aa(lp954
I-1
aI0
aI1
aI1
aI0
aI4
aI5
aI4
aI7
aI7
aa(lp955
I-1
aI0
aI1
aI1
aI0
aI4
aI4
aI6
aI7
aI7
aa(lp956
I-1
aI0
aI1
aI1
aI0
aI4
aI4
aI6
aI7
aI8
aa(lp957
I-1
aI0
aI1
aI1
aI0
aI4
aI4
aI6
aI6
aI8
aa(lp958
I-1
aI0
aI1
aI1
aI0
aI4
aI4
aI6
aI6
aI6
aa(lp959
I-1
aI0
aI1
aI1
aI0
aI4
aI5
aI6
aI6
aI6
aa(lp960
I-1
aI0
aI1
aI1
aI0
aI4
aI5
aI6
aI6
aI8
aa(lp961
I-1
aI0
aI1
aI1
aI0
aI4
aI5
aI6
aI7
aI8
aa(lp962
I-1
aI0
aI1
aI1
aI0
aI4
aI5
aI6
aI7
aI7
aa(lp963
I-1
aI0
aI1
aI1
aI0
aI4
aI5
aI5
aI7
aI7
aa(lp964
I-1
aI0
aI1
aI1
aI0
aI4
aI5
aI5
aI7
aI8
aa(lp965
I-1
aI0
aI1
aI1
aI0
aI4
aI5
aI6
aI5
aI8
aa(lp966
I-1
aI0
aI1
aI1
aI0
aI4
aI5
aI5
aI5
aI8
aa(lp967
I-1
aI0
aI1
aI1
aI0
aI4
aI5
aI5
aI5
aI5
aa(lp968
I-1
aI0
aI1
aI2
aI0
aI4
aI4
aI4
aI4
aI4
aa(lp969
I-1
aI0
aI1
aI2
aI0
aI4
aI4
aI4
aI4
aI8
aa(lp970
I-1
aI0
aI1
aI2
aI0
aI4
aI4
aI6
aI4
aI8
aa(lp971
I-1
aI0
aI1
aI2
aI0
aI4
aI4
aI4
aI7
aI8
aa(lp972
I-1
aI0
aI1
aI2
aI0
aI4
aI4
aI4
aI7
aI7
aa(lp973
I-1
aI0
aI1
aI2
aI0
aI4
aI5
aI4
aI7
aI8
aa(lp974
I-1
aI0
aI1
aI2
aI0
aI4
aI5
aI4
aI7
aI7
aa(lp975
I-1
aI0
aI1
aI2
aI0
aI4
aI4
aI6
aI7
aI7
aa(lp976
I-1
aI0
aI1
aI2
aI0
aI4
aI4
aI6
aI7
aI8
aa(lp977
I-1
aI0
aI1
aI2
aI0
aI4
aI4
aI6
aI6
aI8
aa(lp978
I-1
aI0
aI1
aI2
aI0
aI4
aI4
aI6
aI6
aI6
aa(lp979
I-1
aI0
aI1
aI2
aI0
aI4
aI5
aI6
aI6
aI6
aa(lp980
I-1
aI0
aI1
aI2
aI0
aI4
aI5
aI6
aI6
aI8
aa(lp981
I-1
aI0
aI1
aI2
aI0
aI4
aI5
aI6
aI7
aI8
aa(lp982
I-1
aI0
aI1
aI2
aI0
aI4
aI5
aI6
aI7
aI7
aa(lp983
I-1
aI0
aI1
aI2
aI0
aI4
aI5
aI5
aI7
aI7
aa(lp984
I-1
aI0
aI1
aI2
aI0
aI4
aI5
aI5
aI7
aI8
aa(lp985
I-1
aI0
aI1
aI2
aI0
aI4
aI5
aI6
aI5
aI8
aa(lp986
I-1
aI0
aI1
aI2
aI0
aI4
aI5
aI5
aI5
aI8
aa(lp987
I-1
aI0
aI1
aI2
aI0
aI4
aI5
aI5
aI5
aI5
aa(lp988
I-1
aI0
aI1
aI1
aI1
aI0
aI5
aI5
aI5
aI5
aa(lp989
I-1
aI0
aI1
aI1
aI1
aI0
aI5
aI5
aI5
aI8
aa(lp990
I-1
aI0
aI1
aI1
aI1
aI0
aI5
aI6
aI5
aI8
aa(lp991
I-1
aI0
aI1
aI1
aI1
aI0
aI5
aI5
aI7
aI8
aa(lp992
I-1
aI0
aI1
aI1
aI1
aI0
aI5
aI5
aI7
aI7
aa(lp993
I-1
aI0
aI1
aI1
aI1
aI0
aI5
aI6
aI7
aI7
aa(lp994
I-1
aI0
aI1
aI1
aI1
aI0
aI5
aI6
aI7
aI8
aa(lp995
I-1
aI0
aI1
aI1
aI1
aI0
aI5
aI6
aI6
aI8
aa(lp996
I-1
aI0
aI1
aI1
aI1
aI0
aI5
aI6
aI6
aI6
aa(lp997
I-1
aI0
aI1
aI1
aI3
aI0
aI5
aI5
aI5
aI5
aa(lp998
I-1
aI0
aI1
aI1
aI3
aI0
aI5
aI5
aI5
aI8
aa(lp999
I-1
aI0
aI1
aI1
aI3
aI0
aI5
aI6
aI5
aI8
aa(lp1000
I-1
aI0
aI1
aI1
aI3
aI0
aI5
aI5
aI7
aI8
aa(lp1001
I-1
aI0
aI1
aI1
aI3
aI0
aI5
aI5
aI7
aI7
aa(lp1002
I-1
aI0
aI1
aI1
aI3
aI0
aI5
aI6
aI7
aI7
aa(lp1003
I-1
aI0
aI1
aI1
aI3
aI0
aI5
aI6
aI7
aI8
aa(lp1004
I-1
aI0
aI1
aI1
aI3
aI0
aI5
aI6
aI6
aI8
aa(lp1005
I-1
aI0
aI1
aI1
aI3
aI0
aI5
aI6
aI6
aI6
aa(lp1006
I-1
aI0
aI1
aI2
aI3
aI0
aI5
aI5
aI5
aI5
aa(lp1007
I-1
aI0
aI1
aI2
aI3
aI0
aI5
aI5
aI5
aI8
aa(lp1008
I-1
aI0
aI1
aI2
aI3
aI0
aI5
aI6
aI5
aI8
aa(lp1009
I-1
aI0
aI1
aI2
aI3
aI0
aI5
aI5
aI7
aI8
aa(lp1010
I-1
aI0
aI1
aI2
aI3
aI0
aI5
aI5
aI7
aI7
aa(lp1011
I-1
aI0
aI1
aI2
aI3
aI0
aI5
aI6
aI7
aI7
aa(lp1012
I-1
aI0
aI1
aI2
aI3
aI0
aI5
aI6
aI7
aI8
aa(lp1013
I-1
aI0
aI1
aI2
aI3
aI0
aI5
aI6
aI6
aI8
aa(lp1014
I-1
aI0
aI1
aI2
aI3
aI0
aI5
aI6
aI6
aI6
aa(lp1015
I-1
aI0
aI1
aI2
aI2
aI0
aI5
aI5
aI5
aI5
aa(lp1016
I-1
aI0
aI1
aI2
aI2
aI0
aI5
aI5
aI5
aI8
aa(lp1017
I-1
aI0
aI1
aI2
aI2
aI0
aI5
aI6
aI5
aI8
aa(lp1018
I-1
aI0
aI1
aI2
aI2
aI0
aI5
aI5
aI7
aI8
aa(lp1019
I-1
aI0
aI1
aI2
aI2
aI0
aI5
aI5
aI7
aI7
aa(lp1020
I-1
aI0
aI1
aI2
aI2
aI0
aI5
aI6
aI7
aI7
aa(lp1021
I-1
aI0
aI1
aI2
aI2
aI0
aI5
aI6
aI7
aI8
aa(lp1022
I-1
aI0
aI1
aI2
aI2
aI0
aI5
aI6
aI6
aI8
aa(lp1023
I-1
aI0
aI1
aI2
aI2
aI0
aI5
aI6
aI6
aI6
aa(lp1024
I-1
aI0
aI0
aI0
aI3
aI3
aI3
aI3
aI3
aI3
aa(lp1025
I-1
aI0
aI0
aI0
aI3
aI3
aI3
aI3
aI3
aI8
aa(lp1026
I-1
aI0
aI0
aI0
aI3
aI3
aI3
aI6
aI3
aI8
aa(lp1027
I-1
aI0
aI0
aI0
aI3
aI3
aI3
aI3
aI7
aI8
aa(lp1028
I-1
aI0
aI0
aI0
aI3
aI3
aI3
aI3
aI7
aI7
aa(lp1029
I-1
aI0
aI0
aI0
aI3
aI4
aI3
aI6
aI3
aI8
aa(lp1030
I-1
aI0
aI0
aI0
aI3
aI3
aI5
aI3
aI7
aI8
aa(lp1031
I-1
aI0
aI0
aI0
aI3
aI3
aI5
aI3
aI7
aI7
aa(lp1032
I-1
aI0
aI0
aI0
aI3
aI3
aI3
aI6
aI7
aI7
aa(lp1033
I-1
aI0
aI0
aI0
aI3
aI3
aI3
aI6
aI7
aI8
aa(lp1034
I-1
aI0
aI0
aI0
aI3
aI3
aI3
aI6
aI6
aI8
aa(lp1035
I-1
aI0
aI0
aI0
aI3
aI3
aI3
aI6
aI6
aI6
aa(lp1036
I-1
aI0
aI0
aI0
aI3
aI4
aI5
aI3
aI7
aI8
aa(lp1037
I-1
aI0
aI0
aI0
aI3
aI4
aI5
aI3
aI7
aI7
aa(lp1038
I-1
aI0
aI0
aI0
aI3
aI4
aI4
aI3
aI7
aI7
aa(lp1039
I-1
aI0
aI0
aI0
aI3
aI4
aI3
aI6
aI7
aI7
aa(lp1040
I-1
aI0
aI0
aI0
aI3
aI4
aI3
aI6
aI7
aI8
aa(lp1041
I-1
aI0
aI0
aI0
aI3
aI4
aI3
aI6
aI6
aI8
aa(lp1042
I-1
aI0
aI0
aI0
aI3
aI4
aI3
aI6
aI6
aI6
aa(lp1043
I-1
aI0
aI0
aI0
aI3
aI3
aI5
aI6
aI6
aI6
aa(lp1044
I-1
aI0
aI0
aI0
aI3
aI3
aI5
aI6
aI6
aI8
aa(lp1045
I-1
aI0
aI0
aI0
aI3
aI3
aI5
aI6
aI7
aI8
aa(lp1046
I-1
aI0
aI0
aI0
aI3
aI3
aI5
aI6
aI7
aI7
aa(lp1047
I-1
aI0
aI0
aI0
aI3
aI3
aI5
aI5
aI7
aI7
aa(lp1048
I-1
aI0
aI0
aI0
aI3
aI3
aI5
aI5
aI7
aI8
aa(lp1049
I-1
aI0
aI0
aI0
aI3
aI3
aI5
aI6
aI5
aI8
aa(lp1050
I-1
aI0
aI0
aI0
aI3
aI3
aI5
aI5
aI5
aI8
aa(lp1051
I-1
aI0
aI0
aI0
aI3
aI3
aI5
aI5
aI5
aI5
aa(lp1052
I-1
aI0
aI0
aI0
aI3
aI4
aI5
aI5
aI5
aI5
aa(lp1053
I-1
aI0
aI0
aI0
aI3
aI4
aI5
aI5
aI5
aI8
aa(lp1054
I-1
aI0
aI0
aI0
aI3
aI4
aI5
aI6
aI5
aI8
aa(lp1055
I-1
aI0
aI0
aI0
aI3
aI4
aI5
aI5
aI7
aI8
aa(lp1056
I-1
aI0
aI0
aI0
aI3
aI4
aI5
aI5
aI7
aI7
aa(lp1057
I-1
aI0
aI0
aI0
aI3
aI4
aI5
aI6
aI7
aI7
aa(lp1058
I-1
aI0
aI0
aI0
aI3
aI4
aI5
aI6
aI7
aI8
aa(lp1059
I-1
aI0
aI0
aI0
aI3
aI4
aI5
aI6
aI6
aI8
aa(lp1060
I-1
aI0
aI0
aI0
aI3
aI4
aI5
aI6
aI6
aI6
aa(lp1061
I-1
aI0
aI0
aI0
aI3
aI4
aI4
aI6
aI6
aI6
aa(lp1062
I-1
aI0
aI0
aI0
aI3
aI4
aI4
aI6
aI6
aI8
aa(lp1063
I-1
aI0
aI0
aI0
aI3
aI4
aI4
aI6
aI7
aI8
aa(lp1064
I-1
aI0
aI0
aI0
aI3
aI4
aI4
aI6
aI7
aI7
aa(lp1065
I-1
aI0
aI0
aI0
aI3
aI4
aI5
aI4
aI7
aI7
aa(lp1066
I-1
aI0
aI0
aI0
aI3
aI4
aI5
aI4
aI7
aI8
aa(lp1067
I-1
aI0
aI0
aI0
aI3
aI4
aI4
aI4
aI7
aI7
aa(lp1068
I-1
aI0
aI0
aI0
aI3
aI4
aI4
aI4
aI7
aI8
aa(lp1069
I-1
aI0
aI0
aI0
aI3
aI4
aI4
aI6
aI4
aI8
aa(lp1070
I-1
aI0
aI0
aI0
aI3
aI4
aI4
aI4
aI4
aI8
aa(lp1071
I-1
aI0
aI0
aI0
aI3
aI4
aI4
aI4
aI4
aI4
aa(lp1072
I-1
aI0
aI0
aI2
aI0
aI4
aI4
aI4
aI4
aI4
aa(lp1073
I-1
aI0
aI0
aI2
aI0
aI4
aI4
aI4
aI4
aI8
aa(lp1074
I-1
aI0
aI0
aI2
aI0
aI4
aI4
aI6
aI4
aI8
aa(lp1075
I-1
aI0
aI0
aI2
aI0
aI4
aI4
aI4
aI7
aI8
aa(lp1076
I-1
aI0
aI0
aI2
aI0
aI4
aI4
aI4
aI7
aI7
aa(lp1077
I-1
aI0
aI0
aI2
aI0
aI4
aI5
aI4
aI7
aI8
aa(lp1078
I-1
aI0
aI0
aI2
aI0
aI4
aI5
aI4
aI7
aI7
aa(lp1079
I-1
aI0
aI0
aI2
aI0
aI4
aI4
aI6
aI7
aI7
aa(lp1080
I-1
aI0
aI0
aI2
aI0
aI4
aI4
aI6
aI7
aI8
aa(lp1081
I-1
aI0
aI0
aI2
aI0
aI4
aI4
aI6
aI6
aI8
aa(lp1082
I-1
aI0
aI0
aI2
aI0
aI4
aI4
aI6
aI6
aI6
aa(lp1083
I-1
aI0
aI0
aI2
aI0
aI4
aI5
aI6
aI6
aI6
aa(lp1084
I-1
aI0
aI0
aI2
aI0
aI4
aI5
aI6
aI6
aI8
aa(lp1085
I-1
aI0
aI0
aI2
aI0
aI4
aI5
aI6
aI7
aI8
aa(lp1086
I-1
aI0
aI0
aI2
aI0
aI4
aI5
aI6
aI7
aI7
aa(lp1087
I-1
aI0
aI0
aI2
aI0
aI4
aI5
aI5
aI7
aI7
aa(lp1088
I-1
aI0
aI0
aI2
aI0
aI4
aI5
aI5
aI7
aI8
aa(lp1089
I-1
aI0
aI0
aI2
aI0
aI4
aI5
aI6
aI5
aI8
aa(lp1090
I-1
aI0
aI0
aI2
aI0
aI4
aI5
aI5
aI5
aI8
aa(lp1091
I-1
aI0
aI0
aI2
aI0
aI4
aI5
aI5
aI5
aI5
aa(lp1092
I-1
aI0
aI0
aI2
aI2
aI0
aI5
aI5
aI5
aI5
aa(lp1093
I-1
aI0
aI0
aI2
aI2
aI0
aI5
aI5
aI5
aI8
aa(lp1094
I-1
aI0
aI0
aI2
aI2
aI0
aI5
aI6
aI5
aI8
aa(lp1095
I-1
aI0
aI0
aI2
aI2
aI0
aI5
aI5
aI7
aI8
aa(lp1096
I-1
aI0
aI0
aI2
aI2
aI0
aI5
aI5
aI7
aI7
aa(lp1097
I-1
aI0
aI0
aI2
aI2
aI0
aI5
aI6
aI7
aI7
aa(lp1098
I-1
aI0
aI0
aI2
aI2
aI0
aI5
aI6
aI7
aI8
aa(lp1099
I-1
aI0
aI0
aI2
aI2
aI0
aI5
aI6
aI6
aI8
aa(lp1100
I-1
aI0
aI0
aI2
aI2
aI0
aI5
aI6
aI6
aI6
aa(lp1101
I-1
aI0
aI0
aI2
aI3
aI0
aI5
aI5
aI5
aI5
aa(lp1102
I-1
aI0
aI0
aI2
aI3
aI0
aI5
aI5
aI5
aI8
aa(lp1103
I-1
aI0
aI0
aI2
aI3
aI0
aI5
aI6
aI5
aI8
aa(lp1104
I-1
aI0
aI0
aI2
aI3
aI0
aI5
aI5
aI7
aI8
aa(lp1105
I-1
aI0
aI0
aI2
aI3
aI0
aI5
aI5
aI7
aI7
aa(lp1106
I-1
aI0
aI0
aI2
aI3
aI0
aI5
aI6
aI7
aI7
aa(lp1107
I-1
aI0
aI0
aI2
aI3
aI0
aI5
aI6
aI7
aI8
aa(lp1108
I-1
aI0
aI0
aI2
aI3
aI0
aI5
aI6
aI6
aI8
aa(lp1109
I-1
aI0
aI0
aI2
aI3
aI0
aI5
aI6
aI6
aI6
aa(lp1110
I-1
aI0
aI0
aI2
aI2
aI2
aI0
aI6
aI6
aI6
aa(lp1111
I-1
aI0
aI0
aI2
aI2
aI4
aI0
aI6
aI6
aI6
aa(lp1112
I-1
aI0
aI0
aI2
aI2
aI4
aI0
aI6
aI6
aI8
aa(lp1113
I-1
aI0
aI0
aI2
aI3
aI4
aI0
aI6
aI6
aI6
aa(lp1114
I-1
aI0
aI0
aI2
aI3
aI4
aI0
aI6
aI6
aI8
aa(lp1115
I-1
aI0
aI0
aI2
aI3
aI4
aI0
aI6
aI7
aI8
aa(lp1116
I-1
aI0
aI0
aI2
aI3
aI3
aI0
aI6
aI6
aI6
aa(lp1117
I-1
aI0
aI0
aI2
aI3
aI3
aI0
aI6
aI6
aI8
aa(lp1118
I-1
aI0
aI0
aI2
aI3
aI3
aI0
aI6
aI7
aI8
aa(lp1119
I-1
aI0
aI0
aI2
aI3
aI3
aI0
aI6
aI7
aI7
aa(lp1120
I-1
aI0
aI1
aI0
aI3
aI0
aI5
aI5
aI5
aI5
aa(lp1121
I-1
aI0
aI1
aI0
aI3
aI0
aI5
aI5
aI5
aI8
aa(lp1122
I-1
aI0
aI1
aI0
aI3
aI0
aI5
aI6
aI5
aI8
aa(lp1123
I-1
aI0
aI1
aI0
aI3
aI0
aI5
aI5
aI7
aI8
aa(lp1124
I-1
aI0
aI1
aI0
aI3
aI0
aI5
aI5
aI7
aI7
aa(lp1125
I-1
aI0
aI1
aI0
aI3
aI0
aI5
aI6
aI7
aI7
aa(lp1126
I-1
aI0
aI1
aI0
aI3
aI0
aI5
aI6
aI7
aI8
aa(lp1127
I-1
aI0
aI1
aI0
aI3
aI0
aI5
aI6
aI6
aI8
aa(lp1128
I-1
aI0
aI1
aI0
aI3
aI0
aI5
aI6
aI6
aI6
aa(lp1129
I-1
aI0
aI1
aI0
aI3
aI3
aI0
aI6
aI6
aI6
aa(lp1130
I-1
aI0
aI1
aI0
aI3
aI3
aI0
aI6
aI6
aI8
aa(lp1131
I-1
aI0
aI1
aI0
aI3
aI3
aI0
aI6
aI7
aI8
aa(lp1132
I-1
aI0
aI1
aI0
aI3
aI3
aI0
aI6
aI7
aI7
aa(lp1133
I-1
aI0
aI1
aI0
aI3
aI4
aI0
aI6
aI6
aI6
aa(lp1134
I-1
aI0
aI1
aI0
aI3
aI4
aI0
aI6
aI6
aI8
aa(lp1135
I-1
aI0
aI1
aI0
aI3
aI4
aI0
aI6
aI7
aI8
aa(lp1136
I-1
aI0
aI1
aI0
aI3
aI4
aI0
aI6
aI7
aI7
aa(lp1137
I-1
aI0
aI1
aI1
aI0
aI4
aI4
aI0
aI7
aI7
aa(lp1138
I-1
aI0
aI1
aI2
aI0
aI4
aI4
aI0
aI7
aI7
aa(lp1139
I-1
aI0
aI1
aI2
aI0
aI4
aI5
aI0
aI7
aI7
aa(lp1140
I-1
aI0
aI1
aI2
aI0
aI4
aI5
aI0
aI7
aI8
aa(lp1141
I-1
aI0
aI0
aI0
aI0
aI4
aI4
aI4
aI4
aI4
aa(lp1142
I-1
aI0
aI0
aI0
aI0
aI4
aI4
aI4
aI4
aI8
aa(lp1143
I-1
aI0
aI0
aI0
aI0
aI4
aI4
aI6
aI4
aI8
aa(lp1144
I-1
aI0
aI0
aI0
aI0
aI4
aI4
aI4
aI7
aI8
aa(lp1145
I-1
aI0
aI0
aI0
aI0
aI4
aI4
aI4
aI7
aI7
aa(lp1146
I-1
aI0
aI0
aI0
aI0
aI4
aI5
aI4
aI7
aI8
aa(lp1147
I-1
aI0
aI0
aI0
aI0
aI4
aI5
aI4
aI7
aI7
aa(lp1148
I-1
aI0
aI0
aI0
aI0
aI4
aI4
aI6
aI7
aI7
aa(lp1149
I-1
aI0
aI0
aI0
aI0
aI4
aI4
aI6
aI7
aI8
aa(lp1150
I-1
aI0
aI0
aI0
aI0
aI4
aI4
aI6
aI6
aI8
aa(lp1151
I-1
aI0
aI0
aI0
aI0
aI4
aI4
aI6
aI6
aI6
aa(lp1152
I-1
aI0
aI0
aI0
aI0
aI4
aI5
aI6
aI6
aI6
aa(lp1153
I-1
aI0
aI0
aI0
aI0
aI4
aI5
aI6
aI6
aI8
aa(lp1154
I-1
aI0
aI0
aI0
aI0
aI4
aI5
aI6
aI7
aI8
aa(lp1155
I-1
aI0
aI0
aI0
aI0
aI4
aI5
aI6
aI7
aI7
aa(lp1156
I-1
aI0
aI0
aI0
aI0
aI4
aI5
aI5
aI7
aI7
aa(lp1157
I-1
aI0
aI0
aI0
aI0
aI4
aI5
aI5
aI7
aI8
aa(lp1158
I-1
aI0
aI0
aI0
aI0
aI4
aI5
aI6
aI5
aI8
aa(lp1159
I-1
aI0
aI0
aI0
aI0
aI4
aI5
aI5
aI5
aI8
aa(lp1160
I-1
aI0
aI0
aI0
aI0
aI4
aI5
aI5
aI5
aI5
aa(lp1161
I-1
aI0
aI0
aI0
aI3
aI0
aI5
aI5
aI5
aI5
aa(lp1162
I-1
aI0
aI0
aI0
aI3
aI0
aI5
aI5
aI5
aI8
aa(lp1163
I-1
aI0
aI0
aI0
aI3
aI0
aI5
aI6
aI5
aI8
aa(lp1164
I-1
aI0
aI0
aI0
aI3
aI0
aI5
aI5
aI7
aI8
aa(lp1165
I-1
aI0
aI0
aI0
aI3
aI0
aI5
aI5
aI7
aI7
aa(lp1166
I-1
aI0
aI0
aI0
aI3
aI0
aI5
aI6
aI7
aI7
aa(lp1167
I-1
aI0
aI0
aI0
aI3
aI0
aI5
aI6
aI7
aI8
aa(lp1168
I-1
aI0
aI0
aI0
aI3
aI0
aI5
aI6
aI6
aI8
aa(lp1169
I-1
aI0
aI0
aI0
aI3
aI0
aI5
aI6
aI6
aI6
aa(lp1170
I-1
aI0
aI0
aI0
aI3
aI3
aI0
aI6
aI6
aI6
aa(lp1171
I-1
aI0
aI0
aI0
aI3
aI3
aI0
aI6
aI6
aI8
aa(lp1172
I-1
aI0
aI0
aI0
aI3
aI3
aI0
aI6
aI7
aI8
aa(lp1173
I-1
aI0
aI0
aI0
aI3
aI3
aI0
aI6
aI7
aI7
aa(lp1174
I-1
aI0
aI0
aI0
aI3
aI4
aI0
aI6
aI6
aI6
aa(lp1175
I-1
aI0
aI0
aI0
aI3
aI4
aI0
aI6
aI6
aI8
aa(lp1176
I-1
aI0
aI0
aI0
aI3
aI4
aI0
aI6
aI7
aI8
aa(lp1177
I-1
aI0
aI0
aI0
aI3
aI4
aI0
aI6
aI7
aI7
aa(lp1178
I-1
aI0
aI0
aI2
aI0
aI4
aI0
aI6
aI6
aI6
aa(lp1179
I-1
aI0
aI0
aI2
aI0
aI4
aI0
aI6
aI6
aI8
aa(lp1180
I-1
aI0
aI0
aI2
aI0
aI4
aI0
aI6
aI7
aI8
aa(lp1181
I-1
aI0
aI0
aI2
aI0
aI4
aI0
aI6
aI7
aI7
aa(lp1182
I-1
aI0
aI0
aI2
aI0
aI4
aI4
aI0
aI7
aI7
aa(lp1183
I-1
aI0
aI0
aI2
aI0
aI4
aI5
aI0
aI7
aI7
aa(lp1184
I-1
aI0
aI0
aI2
aI0
aI4
aI5
aI0
aI7
aI8
aa(lp1185
I-1
aI0
aI1
aI0
aI3
aI0
aI5
aI0
aI7
aI7
aa(lp1186
I-1
aI0
aI1
aI0
aI3
aI0
aI5
aI0
aI7
aI8
aa(lp1187
I-1
aI0
aI0
aI0
aI0
aI0
aI5
aI5
aI5
aI5
aa(lp1188
I-1
aI0
aI0
aI0
aI0
aI0
aI5
aI5
aI5
aI8
aa(lp1189
I-1
aI0
aI0
aI0
aI0
aI0
aI5
aI6
aI5
aI8
aa(lp1190
I-1
aI0
aI0
aI0
aI0
aI0
aI5
aI5
aI7
aI8
aa(lp1191
I-1
aI0
aI0
aI0
aI0
aI0
aI5
aI5
aI7
aI7
aa(lp1192
I-1
aI0
aI0
aI0
aI0
aI0
aI5
aI6
aI7
aI7
aa(lp1193
I-1
aI0
aI0
aI0
aI0
aI0
aI5
aI6
aI7
aI8
aa(lp1194
I-1
aI0
aI0
aI0
aI0
aI0
aI5
aI6
aI6
aI8
aa(lp1195
I-1
aI0
aI0
aI0
aI0
aI0
aI5
aI6
aI6
aI6
aa(lp1196
I-1
aI0
aI0
aI0
aI0
aI4
aI0
aI6
aI6
aI6
aa(lp1197
I-1
aI0
aI0
aI0
aI0
aI4
aI0
aI6
aI6
aI8
aa(lp1198
I-1
aI0
aI0
aI0
aI0
aI4
aI0
aI6
aI7
aI8
aa(lp1199
I-1
aI0
aI0
aI0
aI0
aI4
aI0
aI6
aI7
aI7
aa(lp1200
I-1
aI0
aI0
aI0
aI0
aI4
aI4
aI0
aI7
aI7
aa(lp1201
I-1
aI0
aI0
aI0
aI0
aI4
aI5
aI0
aI7
aI7
aa(lp1202
I-1
aI0
aI0
aI0
aI0
aI4
aI5
aI0
aI7
aI8
aa(lp1203
I-1
aI0
aI0
aI0
aI3
aI0
aI5
aI0
aI7
aI7
aa(lp1204
I-1
aI0
aI0
aI0
aI3
aI0
aI5
aI0
aI7
aI8
aa(lp1205
I-1
aI0
aI0
aI2
aI0
aI4
aI0
aI6
aI0
aI8
aa(lp1206
I-1
aI0
aI0
aI0
aI0
aI0
aI0
aI6
aI6
aI6
aa(lp1207
I-1
aI0
aI0
aI0
aI0
aI0
aI0
aI6
aI6
aI8
aa(lp1208
I-1
aI0
aI0
aI0
aI0
aI0
aI0
aI6
aI7
aI8
aa(lp1209
I-1
aI0
aI0
aI0
aI0
aI0
aI0
aI6
aI7
aI7
aa(lp1210
I-1
aI0
aI0
aI0
aI0
aI0
aI5
aI0
aI7
aI7
aa(lp1211
I-1
aI0
aI0
aI0
aI0
aI0
aI5
aI0
aI7
aI8
aa(lp1212
I-1
aI0
aI0
aI0
aI0
aI4
aI0
aI6
aI0
aI8
aa(lp1213
I-1
aI0
aI0
aI0
aI0
aI0
aI0
aI0
aI7
aI7
aa(lp1214
I-1
aI0
aI0
aI0
aI0
aI0
aI0
aI0
aI7
aI8
aa(lp1215
I-1
aI0
aI0
aI0
aI0
aI0
aI0
aI6
aI0
aI8
aa(lp1216
I-1
aI0
aI0
aI0
aI0
aI0
aI0
aI0
aI0
aI8
aa(lp1217
I-1
aI0
aI0
aI0
aI0
aI0
aI0
aI0
aI0
aI0
aaaa(lp1218
(lp1219
(lp1220
I0
aaa(lp1221
(lp1222
I0
aaa(lp1223
(lp1224
I0
aI0
aaa(lp1225
(lp1226
I0
aI0
aI0
aa(lp1227
I1
aI0
aI0
aaa(lp1228
(lp1229
I0
aI1
aI0
aI0
aa(lp1230
I1
aI0
aI0
aI0
aa(lp1231
I2
aI0
aI0
aI0
aa(lp1232
I3
aI0
aI0
aI0
aaa(lp1233
(lp1234
I0
aI3
aI0
aI0
aI0
aa(lp1235
I1
aI2
aI0
aI0
aI0
aa(lp1236
I2
aI1
aI0
aI0
aI0
aa(lp1237
I3
aI0
aI1
aI0
aI0
aa(lp1238
I4
aI0
aI1
aI0
aI0
aa(lp1239
I5
aI0
aI0
aI0
aI0
aa(lp1240
I6
aI0
aI0
aI0
aI0
aa(lp1241
I7
aI0
aI0
aI0
aI0
aa(lp1242
I8
aI0
aI0
aI0
aI0
aaa(lp1243
(lp1244
I0
aI8
aI0
aI0
aI0
aI0
aa(lp1245
I1
aI7
aI0
aI0
aI0
aI0
aa(lp1246
I2
aI6
aI0
aI0
aI0
aI0
aa(lp1247
I3
aI5
aI0
aI0
aI0
aI0
aa(lp1248
I4
aI4
aI0
aI1
aI0
aI0
aa(lp1249
I5
aI3
aI0
aI1
aI0
aI0
aa(lp1250
I6
aI2
aI1
aI0
aI0
aI0
aa(lp1251
I7
aI1
aI2
aI0
aI0
aI0
aa(lp1252
I8
aI0
aI3
aI0
aI0
aI0
aa(lp1253
I9
aI0
aI3
aI0
aI0
aI0
aa(lp1254
I10
aI0
aI2
aI0
aI0
aI0
aa(lp1255
I11
aI0
aI1
aI0
aI0
aI0
aa(lp1256
I12
aI0
aI0
aI1
aI0
aI0
aa(lp1257
I13
aI0
aI0
aI1
aI0
aI0
aa(lp1258
I14
aI0
aI0
aI0
aI0
aI0
aa(lp1259
I15
aI0
aI0
aI1
aI0
aI0
aa(lp1260
I16
aI0
aI0
aI0
aI0
aI0
aa(lp1261
I17
aI0
aI0
aI0
aI0
aI0
aa(lp1262
I18
aI0
aI0
aI0
aI0
aI0
aa(lp1263
I19
aI0
aI0
aI0
aI0
aI0
aaa(lp1264
(lp1265
I0
aI19
aI0
aI0
aI0
aI0
aI0
aa(lp1266
I1
aI18
aI0
aI0
aI0
aI0
aI0
aa(lp1267
I2
aI17
aI0
aI0
aI0
aI0
aI0
aa(lp1268
I3
aI16
aI0
aI0
aI0
aI0
aI0
aa(lp1269
I4
aI15
aI0
aI0
aI1
aI0
aI0
aa(lp1270
I5
aI14
aI0
aI0
aI0
aI0
aI0
aa(lp1271
I6
aI13
aI0
aI0
aI1
aI0
aI0
aa(lp1272
I7
aI12
aI0
aI0
aI1
aI0
aI0
aa(lp1273
I8
aI11
aI0
aI1
aI0
aI0
aI0
aa(lp1274
I9
aI10
aI0
aI2
aI0
aI0
aI0
aa(lp1275
I10
aI9
aI0
aI3
aI0
aI0
aI0
aa(lp1276
I11
aI8
aI0
aI3
aI0
aI0
aI0
aa(lp1277
I12
aI7
aI1
aI2
aI0
aI0
aI0
aa(lp1278
I13
aI6
aI2
aI1
aI0
aI0
aI0
aa(lp1279
I14
aI5
aI3
aI0
aI1
aI0
aI0
aa(lp1280
I15
aI4
aI4
aI0
aI1
aI0
aI0
aa(lp1281
I16
aI3
aI5
aI0
aI0
aI0
aI0
aa(lp1282
I17
aI2
aI6
aI0
aI0
aI0
aI0
aa(lp1283
I18
aI1
aI7
aI0
aI0
aI0
aI0
aa(lp1284
I19
aI0
aI8
aI0
aI0
aI0
aI0
aa(lp1285
I20
aI0
aI8
aI0
aI0
aI0
aI0
aa(lp1286
I21
aI0
aI7
aI0
aI0
aI0
aI0
aa(lp1287
I22
aI0
aI6
aI0
aI0
aI0
aI0
aa(lp1288
I23
aI0
aI5
aI0
aI0
aI0
aI0
aa(lp1289
I24
aI0
aI4
aI0
aI1
aI0
aI0
aa(lp1290
I25
aI0
aI3
aI0
aI1
aI0
aI0
aa(lp1291
I26
aI0
aI2
aI1
aI0
aI0
aI0
aa(lp1292
I27
aI0
aI1
aI2
aI0
aI0
aI0
aa(lp1293
I28
aI0
aI0
aI3
aI0
aI0
aI0
aa(lp1294
I29
aI0
aI0
aI3
aI0
aI0
aI0
aa(lp1295
I30
aI0
aI0
aI2
aI0
aI0
aI0
aa(lp1296
I31
aI0
aI0
aI1
aI0
aI0
aI0
aa(lp1297
I32
aI0
aI0
aI0
aI1
aI0
aI0
aa(lp1298
I33
aI1
aI0
aI0
aI1
aI0
aI0
aa(lp1299
I34
aI0
aI0
aI0
aI1
aI0
aI0
aa(lp1300
I35
aI0
aI0
aI0
aI0
aI0
aI0
aa(lp1301
I36
aI0
aI0
aI3
aI0
aI0
aI0
aa(lp1302
I37
aI0
aI0
aI2
aI0
aI0
aI0
aa(lp1303
I38
aI0
aI0
aI1
aI0
aI0
aI0
aa(lp1304
I39
aI0
aI0
aI0
aI1
aI0
aI0
aa(lp1305
I40
aI0
aI0
aI0
aI1
aI0
aI0
aa(lp1306
I41
aI0
aI0
aI0
aI0
aI0
aI0
aa(lp1307
I42
aI0
aI0
aI0
aI0
aI0
aI0
aa(lp1308
I43
aI0
aI0
aI0
aI1
aI0
aI0
aa(lp1309
I44
aI0
aI0
aI0
aI0
aI0
aI0
aa(lp1310
I45
aI0
aI0
aI0
aI0
aI0
aI0
aa(lp1311
I46
aI0
aI0
aI0
aI0
aI0
aI0
aa(lp1312
I47
aI0
aI0
aI0
aI0
aI0
aI0
aaa(lp1313
(lp1314
I0
aI47
aI0
aI0
aI0
aI0
aI0
aI0
aa(lp1315
I1
aI46
aI0
aI0
aI0
aI0
aI0
aI0
aa(lp1316
I2
aI45
aI0
aI0
aI0
aI0
aI0
aI0
aa(lp1317
I3
aI44
aI0
aI0
aI0
aI0
aI0
aI0
aa(lp1318
I4
aI43
aI0
aI0
aI0
aI1
aI0
aI0
aa(lp1319
I5
aI42
aI0
aI0
aI0
aI0
aI0
aI0
aa(lp1320
I6
aI41
aI0
aI0
aI0
aI0
aI0
aI0
aa(lp1321
I7
aI40
aI0
aI0
aI0
aI1
aI0
aI0
aa(lp1322
I8
aI39
aI0
aI0
aI0
aI1
aI0
aI0
aa(lp1323
I9
aI38
aI0
aI0
aI1
aI0
aI0
aI0
aa(lp1324
I10
aI37
aI0
aI0
aI2
aI0
aI0
aI0
aa(lp1325
I11
aI36
aI0
aI0
aI3
aI0
aI0
aI0
aa(lp1326
I12
aI35
aI0
aI0
aI0
aI0
aI0
aI0
aa(lp1327
I13
aI34
aI0
aI0
aI0
aI1
aI0
aI0
aa(lp1328
I14
aI33
aI1
aI0
aI0
aI1
aI0
aI0
aa(lp1329
I15
aI32
aI0
aI0
aI0
aI1
aI0
aI0
aa(lp1330
I16
aI31
aI0
aI0
aI1
aI0
aI0
aI0
aa(lp1331
I17
aI30
aI0
aI0
aI2
aI0
aI0
aI0
aa(lp1332
I18
aI29
aI0
aI0
aI3
aI0
aI0
aI0
aa(lp1333
I19
aI28
aI0
aI0
aI3
aI0
aI0
aI0
aa(lp1334
I20
aI27
aI0
aI1
aI2
aI0
aI0
aI0
aa(lp1335
I21
aI26
aI0
aI2
aI1
aI0
aI0
aI0
aa(lp1336
I22
aI25
aI0
aI3
aI0
aI1
aI0
aI0
aa(lp1337
I23
aI24
aI0
aI4
aI0
aI1
aI0
aI0
aa(lp1338
I24
aI23
aI0
aI5
aI0
aI0
aI0
aI0
aa(lp1339
I25
aI22
aI0
aI6
aI0
aI0
aI0
aI0
aa(lp1340
I26
aI21
aI0
aI7
aI0
aI0
aI0
aI0
aa(lp1341
I27
aI20
aI0
aI8
aI0
aI0
aI0
aI0
aa(lp1342
I28
aI19
aI0
aI8
aI0
aI0
aI0
aI0
aa(lp1343
I29
aI18
aI1
aI7
aI0
aI0
aI0
aI0
aa(lp1344
I30
aI17
aI2
aI6
aI0
aI0
aI0
aI0
aa(lp1345
I31
aI16
aI3
aI5
aI0
aI0
aI0
aI0
aa(lp1346
I32
aI15
aI4
aI4
aI0
aI1
aI0
aI0
aa(lp1347
I33
aI14
aI5
aI3
aI0
aI1
aI0
aI0
aa(lp1348
I34
aI13
aI6
aI2
aI1
aI0
aI0
aI0
aa(lp1349
I35
aI12
aI7
aI1
aI2
aI0
aI0
aI0
aa(lp1350
I36
aI11
aI8
aI0
aI3
aI0
aI0
aI0
aa(lp1351
I37
aI10
aI9
aI0
aI3
aI0
aI0
aI0
aa(lp1352
I38
aI9
aI10
aI0
aI2
aI0
aI0
aI0
aa(lp1353
I39
aI8
aI11
aI0
aI1
aI0
aI0
aI0
aa(lp1354
I40
aI7
aI12
aI0
aI0
aI1
aI0
aI0
aa(lp1355
I41
aI6
aI13
aI0
aI0
aI1
aI0
aI0
aa(lp1356
I42
aI5
aI14
aI0
aI0
aI0
aI0
aI0
aa(lp1357
I43
aI4
aI15
aI0
aI0
aI1
aI0
aI0
aa(lp1358
I44
aI3
aI16
aI0
aI0
aI0
aI0
aI0
aa(lp1359
I45
aI2
aI17
aI0
aI0
aI0
aI0
aI0
aa(lp1360
I46
aI1
aI18
aI0
aI0
aI0
aI0
aI0
aa(lp1361
I47
aI0
aI19
aI0
aI0
aI0
aI0
aI0
aa(lp1362
I48
aI0
aI19
aI0
aI0
aI0
aI0
aI0
aa(lp1363
I49
aI0
aI18
aI0
aI0
aI0
aI0
aI0
aa(lp1364
I50
aI0
aI17
aI0
aI0
aI0
aI0
aI0
aa(lp1365
I51
aI0
aI16
aI0
aI0
aI0
aI0
aI0
aa(lp1366
I52
aI0
aI15
aI0
aI0
aI1
aI0
aI0
aa(lp1367
I53
aI0
aI14
aI0
aI0
aI0
aI0
aI0
aa(lp1368
I54
aI0
aI13
aI0
aI0
aI1
aI0
aI0
aa(lp1369
I55
aI0
aI12
aI0
aI0
aI1
aI0
aI0
aa(lp1370
I56
aI0
aI11
aI0
aI1
aI0
aI0
aI0
aa(lp1371
I57
aI0
aI10
aI0
aI2
aI0
aI0
aI0
aa(lp1372
I58
aI0
aI9
aI0
aI3
aI0
aI0
aI0
aa(lp1373
I59
aI0
aI8
aI0
aI3
aI0
aI0
aI0
aa(lp1374
I60
aI0
aI7
aI1
aI2
aI0
aI0
aI0
aa(lp1375
I61
aI0
aI6
aI2
aI1
aI0
aI0
aI0
aa(lp1376
I62
aI0
aI5
aI3
aI0
aI1
aI0
aI0
aa(lp1377
I63
aI0
aI4
aI4
aI0
aI1
aI0
aI0
aa(lp1378
I64
aI0
aI3
aI5
aI0
aI0
aI0
aI0
aa(lp1379
I65
aI0
aI2
aI6
aI0
aI0
aI0
aI0
aa(lp1380
I66
aI0
aI1
aI7
aI0
aI0
aI0
aI0
aa(lp1381
I67
aI0
aI0
aI8
aI0
aI0
aI0
aI0
aa(lp1382
I68
aI0
aI0
aI8
aI0
aI0
aI0
aI0
aa(lp1383
I69
aI0
aI0
aI7
aI0
aI0
aI0
aI0
aa(lp1384
I70
aI0
aI0
aI6
aI0
aI0
aI0
aI0
aa(lp1385
I71
aI0
aI0
aI5
aI0
aI0
aI0
aI0
aa(lp1386
I72
aI0
aI0
aI4
aI0
aI1
aI0
aI0
aa(lp1387
I73
aI0
aI0
aI3
aI0
aI1
aI0
aI0
aa(lp1388
I74
aI0
aI0
aI2
aI1
aI0
aI0
aI0
aa(lp1389
I75
aI0
aI0
aI1
aI2
aI0
aI0
aI0
aa(lp1390
I76
aI0
aI0
aI0
aI3
aI0
aI0
aI0
aa(lp1391
I77
aI1
aI0
aI0
aI3
aI0
aI0
aI0
aa(lp1392
I78
aI1
aI0
aI0
aI2
aI0
aI0
aI0
aa(lp1393
I79
aI1
aI0
aI0
aI1
aI0
aI0
aI0
aa(lp1394
I80
aI1
aI0
aI0
aI0
aI1
aI0
aI0
aa(lp1395
I81
aI0
aI0
aI0
aI3
aI0
aI0
aI0
aa(lp1396
I82
aI0
aI0
aI0
aI2
aI0
aI0
aI0
aa(lp1397
I83
aI0
aI0
aI0
aI1
aI0
aI0
aI0
aa(lp1398
I84
aI0
aI0
aI0
aI0
aI1
aI0
aI0
aa(lp1399
I85
aI0
aI0
aI8
aI0
aI0
aI0
aI0
aa(lp1400
I86
aI0
aI0
aI7
aI0
aI0
aI0
aI0
aa(lp1401
I87
aI0
aI0
aI6
aI0
aI0
aI0
aI0
aa(lp1402
I88
aI0
aI0
aI5
aI0
aI0
aI0
aI0
aa(lp1403
I89
aI0
aI0
aI4
aI0
aI1
aI0
aI0
aa(lp1404
I90
aI0
aI0
aI3
aI0
aI1
aI0
aI0
aa(lp1405
I91
aI0
aI0
aI2
aI1
aI0
aI0
aI0
aa(lp1406
I92
aI0
aI0
aI1
aI2
aI0
aI0
aI0
aa(lp1407
I93
aI0
aI0
aI0
aI3
aI0
aI0
aI0
aa(lp1408
I94
aI0
aI0
aI0
aI3
aI0
aI0
aI0
aa(lp1409
I95
aI0
aI0
aI0
aI2
aI0
aI0
aI0
aa(lp1410
I96
aI0
aI0
aI0
aI1
aI0
aI0
aI0
aa(lp1411
I97
aI0
aI0
aI0
aI0
aI1
aI0
aI0
aa(lp1412
I98
aI0
aI1
aI0
aI0
aI1
aI0
aI0
aa(lp1413
I99
aI0
aI0
aI0
aI0
aI1
aI0
aI0
aa(lp1414
I100
aI0
aI0
aI0
aI0
aI0
aI0
aI0
aa(lp1415
I101
aI0
aI0
aI0
aI0
aI1
aI0
aI0
aa(lp1416
I102
aI0
aI0
aI0
aI0
aI0
aI0
aI0
aa(lp1417
I103
aI0
aI0
aI0
aI3
aI0
aI0
aI0
aa(lp1418
I104
aI0
aI0
aI0
aI2
aI0
aI0
aI0
aa(lp1419
I105
aI0
aI0
aI0
aI1
aI0
aI0
aI0
aa(lp1420
I106
aI0
aI0
aI0
aI0
aI1
aI0
aI0
aa(lp1421
I107
aI0
aI0
aI0
aI0
aI1
aI0
aI0
aa(lp1422
I108
aI0
aI0
aI0
aI0
aI0
aI0
aI0
aa(lp1423
I109
aI0
aI0
aI0
aI0
aI0
aI0
aI0
aa(lp1424
I110
aI0
aI0
aI0
aI0
aI1
aI0
aI0
aa(lp1425
I111
aI0
aI0
aI0
aI0
aI0
aI0
aI0
aa(lp1426
I112
aI0
aI0
aI0
aI0
aI0
aI0
aI0
aa(lp1427
I113
aI0
aI0
aI0
aI0
aI0
aI0
aI0
aa(lp1428
I114
aI0
aI0
aI0
aI0
aI0
aI0
aI0
aaa(lp1429
(lp1430
I0
aI114
aI0
aI0
aI0
aI0
aI0
aI0
aI0
aa(lp1431
I1
aI113
aI0
aI0
aI0
aI0
aI0
aI0
aI0
aa(lp1432
I2
aI112
aI0
aI0
aI0
aI0
aI0
aI0
aI0
aa(lp1433
I3
aI111
aI0
aI0
aI0
aI0
aI0
aI0
aI0
aa(lp1434
I4
aI110
aI0
aI0
aI0
aI0
aI1
aI0
aI0
aa(lp1435
I5
aI109
aI0
aI0
aI0
aI0
aI0
aI0
aI0
aa(lp1436
I6
aI108
aI0
aI0
aI0
aI0
aI0
aI0
aI0
aa(lp1437
I7
aI107
aI0
aI0
aI0
aI0
aI1
aI0
aI0
aa(lp1438
I8
aI106
aI0
aI0
aI0
aI0
aI1
aI0
aI0
aa(lp1439
I9
aI105
aI0
aI0
aI0
aI1
aI0
aI0
aI0
aa(lp1440
I10
aI104
aI0
aI0
aI0
aI2
aI0
aI0
aI0
aa(lp1441
I11
aI103
aI0
aI0
aI0
aI3
aI0
aI0
aI0
aa(lp1442
I12
aI102
aI0
aI0
aI0
aI0
aI0
aI0
aI0
aa(lp1443
I13
aI101
aI0
aI0
aI0
aI0
aI1
aI0
aI0
aa(lp1444
I14
aI100
aI0
aI0
aI0
aI0
aI0
aI0
aI0
aa(lp1445
I15
aI99
aI0
aI0
aI0
aI0
aI1
aI0
aI0
aa(lp1446
I16
aI98
aI0
aI1
aI0
aI0
aI1
aI0
aI0
aa(lp1447
I17
aI97
aI0
aI0
aI0
aI0
aI1
aI0
aI0
aa(lp1448
I18
aI96
aI0
aI0
aI0
aI1
aI0
aI0
aI0
aa(lp1449
I19
aI95
aI0
aI0
aI0
aI2
aI0
aI0
aI0
aa(lp1450
I20
aI94
aI0
aI0
aI0
aI3
aI0
aI0
aI0
aa(lp1451
I21
aI93
aI0
aI0
aI0
aI3
aI0
aI0
aI0
aa(lp1452
I22
aI92
aI0
aI0
aI1
aI2
aI0
aI0
aI0
aa(lp1453
I23
aI91
aI0
aI0
aI2
aI1
aI0
aI0
aI0
aa(lp1454
I24
aI90
aI0
aI0
aI3
aI0
aI1
aI0
aI0
aa(lp1455
I25
aI89
aI0
aI0
aI4
aI0
aI1
aI0
aI0
aa(lp1456
I26
aI88
aI0
aI0
aI5
aI0
aI0
aI0
aI0
aa(lp1457
I27
aI87
aI0
aI0
aI6
aI0
aI0
aI0
aI0
aa(lp1458
I28
aI86
aI0
aI0
aI7
aI0
aI0
aI0
aI0
aa(lp1459
I29
aI85
aI0
aI0
aI8
aI0
aI0
aI0
aI0
aa(lp1460
I30
aI84
aI0
aI0
aI0
aI0
aI1
aI0
aI0
aa(lp1461
I31
aI83
aI0
aI0
aI0
aI1
aI0
aI0
aI0
aa(lp1462
I32
aI82
aI0
aI0
aI0
aI2
aI0
aI0
aI0
aa(lp1463
I33
aI81
aI0
aI0
aI0
aI3
aI0
aI0
aI0
aa(lp1464
I34
aI80
aI1
aI0
aI0
aI0
aI1
aI0
aI0
aa(lp1465
I35
aI79
aI1
aI0
aI0
aI1
aI0
aI0
aI0
aa(lp1466
I36
aI78
aI1
aI0
aI0
aI2
aI0
aI0
aI0
aa(lp1467
I37
aI77
aI1
aI0
aI0
aI3
aI0
aI0
aI0
aa(lp1468
I38
aI76
aI0
aI0
aI0
aI3
aI0
aI0
aI0
aa(lp1469
I39
aI75
aI0
aI0
aI1
aI2
aI0
aI0
aI0
aa(lp1470
I40
aI74
aI0
aI0
aI2
aI1
aI0
aI0
aI0
aa(lp1471
I41
aI73
aI0
aI0
aI3
aI0
aI1
aI0
aI0
aa(lp1472
I42
aI72
aI0
aI0
aI4
aI0
aI1
aI0
aI0
aa(lp1473
I43
aI71
aI0
aI0
aI5
aI0
aI0
aI0
aI0
aa(lp1474
I44
aI70
aI0
aI0
aI6
aI0
aI0
aI0
aI0
aa(lp1475
I45
aI69
aI0
aI0
aI7
aI0
aI0
aI0
aI0
aa(lp1476
I46
aI68
aI0
aI0
aI8
aI0
aI0
aI0
aI0
aa(lp1477
I47
aI67
aI0
aI0
aI8
aI0
aI0
aI0
aI0
aa(lp1478
I48
aI66
aI0
aI1
aI7
aI0
aI0
aI0
aI0
aa(lp1479
I49
aI65
aI0
aI2
aI6
aI0
aI0
aI0
aI0
aa(lp1480
I50
aI64
aI0
aI3
aI5
aI0
aI0
aI0
aI0
aa(lp1481
I51
aI63
aI0
aI4
aI4
aI0
aI1
aI0
aI0
aa(lp1482
I52
aI62
aI0
aI5
aI3
aI0
aI1
aI0
aI0
aa(lp1483
I53
aI61
aI0
aI6
aI2
aI1
aI0
aI0
aI0
aa(lp1484
I54
aI60
aI0
aI7
aI1
aI2
aI0
aI0
aI0
aa(lp1485
I55
aI59
aI0
aI8
aI0
aI3
aI0
aI0
aI0
aa(lp1486
I56
aI58
aI0
aI9
aI0
aI3
aI0
aI0
aI0
aa(lp1487
I57
aI57
aI0
aI10
aI0
aI2
aI0
aI0
aI0
aa(lp1488
I58
aI56
aI0
aI11
aI0
aI1
aI0
aI0
aI0
aa(lp1489
I59
aI55
aI0
aI12
aI0
aI0
aI1
aI0
aI0
aa(lp1490
I60
aI54
aI0
aI13
aI0
aI0
aI1
aI0
aI0
aa(lp1491
I61
aI53
aI0
aI14
aI0
aI0
aI0
aI0
aI0
aa(lp1492
I62
aI52
aI0
aI15
aI0
aI0
aI1
aI0
aI0
aa(lp1493
I63
aI51
aI0
aI16
aI0
aI0
aI0
aI0
aI0
aa(lp1494
I64
aI50
aI0
aI17
aI0
aI0
aI0
aI0
aI0
aa(lp1495
I65
aI49
aI0
aI18
aI0
aI0
aI0
aI0
aI0
aa(lp1496
I66
aI48
aI0
aI19
aI0
aI0
aI0
aI0
aI0
aa(lp1497
I67
aI47
aI0
aI19
aI0
aI0
aI0
aI0
aI0
aa(lp1498
I68
aI46
aI1
aI18
aI0
aI0
aI0
aI0
aI0
aa(lp1499
I69
aI45
aI2
aI17
aI0
aI0
aI0
aI0
aI0
aa(lp1500
I70
aI44
aI3
aI16
aI0
aI0
aI0
aI0
aI0
aa(lp1501
I71
aI43
aI4
aI15
aI0
aI0
aI1
aI0
aI0
aa(lp1502
I72
aI42
aI5
aI14
aI0
aI0
aI0
aI0
aI0
aa(lp1503
I73
aI41
aI6
aI13
aI0
aI0
aI1
aI0
aI0
aa(lp1504
I74
aI40
aI7
aI12
aI0
aI0
aI1
aI0
aI0
aa(lp1505
I75
aI39
aI8
aI11
aI0
aI1
aI0
aI0
aI0
aa(lp1506
I76
aI38
aI9
aI10
aI0
aI2
aI0
aI0
aI0
aa(lp1507
I77
aI37
aI10
aI9
aI0
aI3
aI0
aI0
aI0
aa(lp1508
I78
aI36
aI11
aI8
aI0
aI3
aI0
aI0
aI0
aa(lp1509
I79
aI35
aI12
aI7
aI1
aI2
aI0
aI0
aI0
aa(lp1510
I80
aI34
aI13
aI6
aI2
aI1
aI0
aI0
aI0
aa(lp1511
I81
aI33
aI14
aI5
aI3
aI0
aI1
aI0
aI0
aa(lp1512
I82
aI32
aI15
aI4
aI4
aI0
aI1
aI0
aI0
aa(lp1513
I83
aI31
aI16
aI3
aI5
aI0
aI0
aI0
aI0
aa(lp1514
I84
aI30
aI17
aI2
aI6
aI0
aI0
aI0
aI0
aa(lp1515
I85
aI29
aI18
aI1
aI7
aI0
aI0
aI0
aI0
aa(lp1516
I86
aI28
aI19
aI0
aI8
aI0
aI0
aI0
aI0
aa(lp1517
I87
aI27
aI20
aI0
aI8
aI0
aI0
aI0
aI0
aa(lp1518
I88
aI26
aI21
aI0
aI7
aI0
aI0
aI0
aI0
aa(lp1519
I89
aI25
aI22
aI0
aI6
aI0
aI0
aI0
aI0
aa(lp1520
I90
aI24
aI23
aI0
aI5
aI0
aI0
aI0
aI0
aa(lp1521
I91
aI23
aI24
aI0
aI4
aI0
aI1
aI0
aI0
aa(lp1522
I92
aI22
aI25
aI0
aI3
aI0
aI1
aI0
aI0
aa(lp1523
I93
aI21
aI26
aI0
aI2
aI1
aI0
aI0
aI0
aa(lp1524
I94
aI20
aI27
aI0
aI1
aI2
aI0
aI0
aI0
aa(lp1525
I95
aI19
aI28
aI0
aI0
aI3
aI0
aI0
aI0
aa(lp1526
I96
aI18
aI29
aI0
aI0
aI3
aI0
aI0
aI0
aa(lp1527
I97
aI17
aI30
aI0
aI0
aI2
aI0
aI0
aI0
aa(lp1528
I98
aI16
aI31
aI0
aI0
aI1
aI0
aI0
aI0
aa(lp1529
I99
aI15
aI32
aI0
aI0
aI0
aI1
aI0
aI0
aa(lp1530
I100
aI14
aI33
aI1
aI0
aI0
aI1
aI0
aI0
aa(lp1531
I101
aI13
aI34
aI0
aI0
aI0
aI1
aI0
aI0
aa(lp1532
I102
aI12
aI35
aI0
aI0
aI0
aI0
aI0
aI0
aa(lp1533
I103
aI11
aI36
aI0
aI0
aI3
aI0
aI0
aI0
aa(lp1534
I104
aI10
aI37
aI0
aI0
aI2
aI0
aI0
aI0
aa(lp1535
I105
aI9
aI38
aI0
aI0
aI1
aI0
aI0
aI0
aa(lp1536
I106
aI8
aI39
aI0
aI0
aI0
aI1
aI0
aI0
aa(lp1537
I107
aI7
aI40
aI0
aI0
aI0
aI1
aI0
aI0
aa(lp1538
I108
aI6
aI41
aI0
aI0
aI0
aI0
aI0
aI0
aa(lp1539
I109
aI5
aI42
aI0
aI0
aI0
aI0
aI0
aI0
aa(lp1540
I110
aI4
aI43
aI0
aI0
aI0
aI1
aI0
aI0
aa(lp1541
I111
aI3
aI44
aI0
aI0
aI0
aI0
aI0
aI0
aa(lp1542
I112
aI2
aI45
aI0
aI0
aI0
aI0
aI0
aI0
aa(lp1543
I113
aI1
aI46
aI0
aI0
aI0
aI0
aI0
aI0
aa(lp1544
I114
aI0
aI47
aI0
aI0
aI0
aI0
aI0
aI0
aa(lp1545
I115
aI0
aI47
aI0
aI0
aI0
aI0
aI0
aI0
aa(lp1546
I116
aI0
aI46
aI0
aI0
aI0
aI0
aI0
aI0
aa(lp1547
I117
aI0
aI45
aI0
aI0
aI0
aI0
aI0
aI0
aa(lp1548
I118
aI0
aI44
aI0
aI0
aI0
aI0
aI0
aI0
aa(lp1549
I119
aI0
aI43
aI0
aI0
aI0
aI1
aI0
aI0
aa(lp1550
I120
aI0
aI42
aI0
aI0
aI0
aI0
aI0
aI0
aa(lp1551
I121
aI0
aI41
aI0
aI0
aI0
aI0
aI0
aI0
aa(lp1552
I122
aI0
aI40
aI0
aI0
aI0
aI1
aI0
aI0
aa(lp1553
I123
aI0
aI39
aI0
aI0
aI0
aI1
aI0
aI0
aa(lp1554
I124
aI0
aI38
aI0
aI0
aI1
aI0
aI0
aI0
aa(lp1555
I125
aI0
aI37
aI0
aI0
aI2
aI0
aI0
aI0
aa(lp1556
I126
aI0
aI36
aI0
aI0
aI3
aI0
aI0
aI0
aa(lp1557
I127
aI0
aI35
aI0
aI0
aI0
aI0
aI0
aI0
aa(lp1558
I128
aI0
aI34
aI0
aI0
aI0
aI1
aI0
aI0
aa(lp1559
I129
aI0
aI33
aI1
aI0
aI0
aI1
aI0
aI0
aa(lp1560
I130
aI0
aI32
aI0
aI0
aI0
aI1
aI0
aI0
aa(lp1561
I131
aI0
aI31
aI0
aI0
aI1
aI0
aI0
aI0
aa(lp1562
I132
aI0
aI30
aI0
aI0
aI2
aI0
aI0
aI0
aa(lp1563
I133
aI0
aI29
aI0
aI0
aI3
aI0
aI0
aI0
aa(lp1564
I134
aI0
aI28
aI0
aI0
aI3
aI0
aI0
aI0
aa(lp1565
I135
aI0
aI27
aI0
aI1
aI2
aI0
aI0
aI0
aa(lp1566
I136
aI0
aI26
aI0
aI2
aI1
aI0
aI0
aI0
aa(lp1567
I137
aI0
aI25
aI0
aI3
aI0
aI1
aI0
aI0
aa(lp1568
I138
aI0
aI24
aI0
aI4
aI0
aI1
aI0
aI0
aa(lp1569
I139
aI0
aI23
aI0
aI5
aI0
aI0
aI0
aI0
aa(lp1570
I140
aI0
aI22
aI0
aI6
aI0
aI0
aI0
aI0
aa(lp1571
I141
aI0
aI21
aI0
aI7
aI0
aI0
aI0
aI0
aa(lp1572
I142
aI0
aI20
aI0
aI8
aI0
aI0
aI0
aI0
aa(lp1573
I143
aI0
aI19
aI0
aI8
aI0
aI0
aI0
aI0
aa(lp1574
I144
aI0
aI18
aI1
aI7
aI0
aI0
aI0
aI0
aa(lp1575
I145
aI0
aI17
aI2
aI6
aI0
aI0
aI0
aI0
aa(lp1576
I146
aI0
aI16
aI3
aI5
aI0
aI0
aI0
aI0
aa(lp1577
I147
aI0
aI15
aI4
aI4
aI0
aI1
aI0
aI0
aa(lp1578
I148
aI0
aI14
aI5
aI3
aI0
aI1
aI0
aI0
aa(lp1579
I149
aI0
aI13
aI6
aI2
aI1
aI0
aI0
aI0
aa(lp1580
I150
aI0
aI12
aI7
aI1
aI2
aI0
aI0
aI0
aa(lp1581
I151
aI0
aI11
aI8
aI0
aI3
aI0
aI0
aI0
aa(lp1582
I152
aI0
aI10
aI9
aI0
aI3
aI0
aI0
aI0
aa(lp1583
I153
aI0
aI9
aI10
aI0
aI2
aI0
aI0
aI0
aa(lp1584
I154
aI0
aI8
aI11
aI0
aI1
aI0
aI0
aI0
aa(lp1585
I155
aI0
aI7
aI12
aI0
aI0
aI1
aI0
aI0
aa(lp1586
I156
aI0
aI6
aI13
aI0
aI0
aI1
aI0
aI0
aa(lp1587
I157
aI0
aI5
aI14
aI0
aI0
aI0
aI0
aI0
aa(lp1588
I158
aI0
aI4
aI15
aI0
aI0
aI1
aI0
aI0
aa(lp1589
I159
aI0
aI3
aI16
aI0
aI0
aI0
aI0
aI0
aa(lp1590
I160
aI0
aI2
aI17
aI0
aI0
aI0
aI0
aI0
aa(lp1591
I161
aI0
aI1
aI18
aI0
aI0
aI0
aI0
aI0
aa(lp1592
I162
aI0
aI0
aI19
aI0
aI0
aI0
aI0
aI0
aa(lp1593
I163
aI0
aI0
aI19
aI0
aI0
aI0
aI0
aI0
aa(lp1594
I164
aI0
aI0
aI18
aI0
aI0
aI0
aI0
aI0
aa(lp1595
I165
aI0
aI0
aI17
aI0
aI0
aI0
aI0
aI0
aa(lp1596
I166
aI0
aI0
aI16
aI0
aI0
aI0
aI0
aI0
aa(lp1597
I167
aI0
aI0
aI15
aI0
aI0
aI1
aI0
aI0
aa(lp1598
I168
aI0
aI0
aI14
aI0
aI0
aI0
aI0
aI0
aa(lp1599
I169
aI0
aI0
aI13
aI0
aI0
aI1
aI0
aI0
aa(lp1600
I170
aI0
aI0
aI12
aI0
aI0
aI1
aI0
aI0
aa(lp1601
I171
aI0
aI0
aI11
aI0
aI1
aI0
aI0
aI0
aa(lp1602
I172
aI0
aI0
aI10
aI0
aI2
aI0
aI0
aI0
aa(lp1603
I173
aI0
aI0
aI9
aI0
aI3
aI0
aI0
aI0
aa(lp1604
I174
aI0
aI0
aI8
aI0
aI3
aI0
aI0
aI0
aa(lp1605
I175
aI0
aI0
aI7
aI1
aI2
aI0
aI0
aI0
aa(lp1606
I176
aI0
aI0
aI6
aI2
aI1
aI0
aI0
aI0
aa(lp1607
I177
aI0
aI0
aI5
aI3
aI0
aI1
aI0
aI0
aa(lp1608
I178
aI0
aI0
aI4
aI4
aI0
aI1
aI0
aI0
aa(lp1609
I179
aI0
aI0
aI3
aI5
aI0
aI0
aI0
aI0
aa(lp1610
I180
aI0
aI0
aI2
aI6
aI0
aI0
aI0
aI0
aa(lp1611
I181
aI0
aI0
aI1
aI7
aI0
aI0
aI0
aI0
aa(lp1612
I182
aI0
aI0
aI0
aI8
aI0
aI0
aI0
aI0
aa(lp1613
I183
aI1
aI0
aI0
aI8
aI0
aI0
aI0
aI0
aa(lp1614
I184
aI1
aI0
aI0
aI7
aI0
aI0
aI0
aI0
aa(lp1615
I185
aI1
aI0
aI0
aI6
aI0
aI0
aI0
aI0
aa(lp1616
I186
aI1
aI0
aI0
aI5
aI0
aI0
aI0
aI0
aa(lp1617
I187
aI1
aI0
aI0
aI4
aI0
aI1
aI0
aI0
aa(lp1618
I188
aI1
aI0
aI0
aI3
aI0
aI1
aI0
aI0
aa(lp1619
I189
aI1
aI0
aI0
aI2
aI1
aI0
aI0
aI0
aa(lp1620
I190
aI1
aI0
aI0
aI1
aI2
aI0
aI0
aI0
aa(lp1621
I191
aI1
aI0
aI0
aI0
aI3
aI0
aI0
aI0
aa(lp1622
I192
aI0
aI0
aI0
aI8
aI0
aI0
aI0
aI0
aa(lp1623
I193
aI0
aI0
aI0
aI7
aI0
aI0
aI0
aI0
aa(lp1624
I194
aI0
aI0
aI0
aI6
aI0
aI0
aI0
aI0
aa(lp1625
I195
aI0
aI0
aI0
aI5
aI0
aI0
aI0
aI0
aa(lp1626
I196
aI0
aI0
aI0
aI4
aI0
aI1
aI0
aI0
aa(lp1627
I197
aI0
aI0
aI0
aI3
aI0
aI1
aI0
aI0
aa(lp1628
I198
aI0
aI0
aI0
aI2
aI1
aI0
aI0
aI0
aa(lp1629
I199
aI0
aI0
aI0
aI1
aI2
aI0
aI0
aI0
aa(lp1630
I200
aI0
aI0
aI0
aI0
aI3
aI0
aI0
aI0
aa(lp1631
I201
aI3
aI0
aI0
aI0
aI3
aI0
aI0
aI0
aa(lp1632
I202
aI2
aI0
aI0
aI0
aI3
aI0
aI0
aI0
aa(lp1633
I203
aI2
aI0
aI0
aI0
aI2
aI0
aI0
aI0
aa(lp1634
I204
aI1
aI0
aI0
aI0
aI3
aI0
aI0
aI0
aa(lp1635
I205
aI1
aI0
aI0
aI0
aI2
aI0
aI0
aI0
aa(lp1636
I206
aI1
aI0
aI0
aI0
aI1
aI0
aI0
aI0
aa(lp1637
I207
aI0
aI1
aI0
aI0
aI3
aI0
aI0
aI0
aa(lp1638
I208
aI0
aI1
aI0
aI0
aI2
aI0
aI0
aI0
aa(lp1639
I209
aI0
aI1
aI0
aI0
aI1
aI0
aI0
aI0
aa(lp1640
I210
aI0
aI1
aI0
aI0
aI0
aI1
aI0
aI0
aa(lp1641
I211
aI0
aI0
aI19
aI0
aI0
aI0
aI0
aI0
aa(lp1642
I212
aI0
aI0
aI18
aI0
aI0
aI0
aI0
aI0
aa(lp1643
I213
aI0
aI0
aI17
aI0
aI0
aI0
aI0
aI0
aa(lp1644
I214
aI0
aI0
aI16
aI0
aI0
aI0
aI0
aI0
aa(lp1645
I215
aI0
aI0
aI15
aI0
aI0
aI1
aI0
aI0
aa(lp1646
I216
aI0
aI0
aI14
aI0
aI0
aI0
aI0
aI0
aa(lp1647
I217
aI0
aI0
aI13
aI0
aI0
aI1
aI0
aI0
aa(lp1648
I218
aI0
aI0
aI12
aI0
aI0
aI1
aI0
aI0
aa(lp1649
I219
aI0
aI0
aI11
aI0
aI1
aI0
aI0
aI0
aa(lp1650
I220
aI0
aI0
aI10
aI0
aI2
aI0
aI0
aI0
aa(lp1651
I221
aI0
aI0
aI9
aI0
aI3
aI0
aI0
aI0
aa(lp1652
I222
aI0
aI0
aI8
aI0
aI3
aI0
aI0
aI0
aa(lp1653
I223
aI0
aI0
aI7
aI1
aI2
aI0
aI0
aI0
aa(lp1654
I224
aI0
aI0
aI6
aI2
aI1
aI0
aI0
aI0
aa(lp1655
I225
aI0
aI0
aI5
aI3
aI0
aI1
aI0
aI0
aa(lp1656
I226
aI0
aI0
aI4
aI4
aI0
aI1
aI0
aI0
aa(lp1657
I227
aI0
aI0
aI3
aI5
aI0
aI0
aI0
aI0
aa(lp1658
I228
aI0
aI0
aI2
aI6
aI0
aI0
aI0
aI0
aa(lp1659
I229
aI0
aI0
aI1
aI7
aI0
aI0
aI0
aI0
aa(lp1660
I230
aI0
aI0
aI0
aI8
aI0
aI0
aI0
aI0
aa(lp1661
I231
aI0
aI0
aI0
aI8
aI0
aI0
aI0
aI0
aa(lp1662
I232
aI0
aI0
aI0
aI7
aI0
aI0
aI0
aI0
aa(lp1663
I233
aI0
aI0
aI0
aI6
aI0
aI0
aI0
aI0
aa(lp1664
I234
aI0
aI0
aI0
aI5
aI0
aI0
aI0
aI0
aa(lp1665
I235
aI0
aI0
aI0
aI4
aI0
aI1
aI0
aI0
aa(lp1666
I236
aI0
aI0
aI0
aI3
aI0
aI1
aI0
aI0
aa(lp1667
I237
aI0
aI0
aI0
aI2
aI1
aI0
aI0
aI0
aa(lp1668
I238
aI0
aI0
aI0
aI1
aI2
aI0
aI0
aI0
aa(lp1669
I239
aI0
aI0
aI0
aI0
aI3
aI0
aI0
aI0
aa(lp1670
I240
aI0
aI1
aI0
aI0
aI3
aI0
aI0
aI0
aa(lp1671
I241
aI0
aI1
aI0
aI0
aI2
aI0
aI0
aI0
aa(lp1672
I242
aI0
aI1
aI0
aI0
aI1
aI0
aI0
aI0
aa(lp1673
I243
aI0
aI1
aI0
aI0
aI0
aI1
aI0
aI0
aa(lp1674
I244
aI0
aI0
aI0
aI0
aI3
aI0
aI0
aI0
aa(lp1675
I245
aI0
aI0
aI0
aI0
aI2
aI0
aI0
aI0
aa(lp1676
I246
aI0
aI0
aI0
aI0
aI1
aI0
aI0
aI0
aa(lp1677
I247
aI0
aI0
aI0
aI0
aI0
aI1
aI0
aI0
aa(lp1678
I248
aI0
aI0
aI0
aI0
aI3
aI0
aI0
aI0
aa(lp1679
I249
aI0
aI0
aI0
aI0
aI2
aI0
aI0
aI0
aa(lp1680
I250
aI0
aI0
aI0
aI0
aI1
aI0
aI0
aI0
aa(lp1681
I251
aI0
aI0
aI0
aI0
aI0
aI1
aI0
aI0
aa(lp1682
I252
aI0
aI0
aI1
aI0
aI0
aI1
aI0
aI0
aa(lp1683
I253
aI0
aI0
aI0
aI0
aI0
aI1
aI0
aI0
aa(lp1684
I254
aI0
aI0
aI0
aI0
aI0
aI0
aI0
aI0
aa(lp1685
I255
aI0
aI0
aI0
aI8
aI0
aI0
aI0
aI0
aa(lp1686
I256
aI0
aI0
aI0
aI7
aI0
aI0
aI0
aI0
aa(lp1687
I257
aI0
aI0
aI0
aI6
aI0
aI0
aI0
aI0
aa(lp1688
I258
aI0
aI0
aI0
aI5
aI0
aI0
aI0
aI0
aa(lp1689
I259
aI0
aI0
aI0
aI4
aI0
aI1
aI0
aI0
aa(lp1690
I260
aI0
aI0
aI0
aI3
aI0
aI1
aI0
aI0
aa(lp1691
I261
aI0
aI0
aI0
aI2
aI1
aI0
aI0
aI0
aa(lp1692
I262
aI0
aI0
aI0
aI1
aI2
aI0
aI0
aI0
aa(lp1693
I263
aI0
aI0
aI0
aI0
aI3
aI0
aI0
aI0
aa(lp1694
I264
aI0
aI0
aI0
aI0
aI3
aI0
aI0
aI0
aa(lp1695
I265
aI0
aI0
aI0
aI0
aI2
aI0
aI0
aI0
aa(lp1696
I266
aI0
aI0
aI0
aI0
aI1
aI0
aI0
aI0
aa(lp1697
I267
aI0
aI0
aI0
aI0
aI0
aI1
aI0
aI0
aa(lp1698
I268
aI0
aI0
aI1
aI0
aI0
aI1
aI0
aI0
aa(lp1699
I269
aI0
aI0
aI0
aI0
aI0
aI1
aI0
aI0
aa(lp1700
I270
aI0
aI0
aI0
aI0
aI0
aI0
aI0
aI0
aa(lp1701
I271
aI0
aI0
aI0
aI0
aI0
aI1
aI0
aI0
aa(lp1702
I272
aI0
aI0
aI0
aI0
aI0
aI0
aI0
aI0
aa(lp1703
I273
aI0
aI0
aI0
aI0
aI0
aI0
aI0
aI0
aa(lp1704
I274
aI0
aI0
aI0
aI0
aI3
aI0
aI0
aI0
aa(lp1705
I275
aI0
aI0
aI0
aI0
aI2
aI0
aI0
aI0
aa(lp1706
I276
aI0
aI0
aI0
aI0
aI1
aI0
aI0
aI0
aa(lp1707
I277
aI0
aI0
aI0
aI0
aI0
aI1
aI0
aI0
aa(lp1708
I278
aI0
aI0
aI0
aI0
aI0
aI1
aI0
aI0
aa(lp1709
I279
aI0
aI0
aI0
aI0
aI0
aI0
aI0
aI0
aa(lp1710
I280
aI0
aI0
aI0
aI0
aI0
aI0
aI0
aI0
aa(lp1711
I281
aI0
aI0
aI0
aI0
aI0
aI1
aI0
aI0
aa(lp1712
I282
aI0
aI0
aI0
aI0
aI0
aI0
aI0
aI0
aa(lp1713
I283
aI0
aI0
aI0
aI0
aI0
aI0
aI0
aI0
aa(lp1714
I284
aI0
aI0
aI0
aI0
aI0
aI0
aI0
aI0
aa(lp1715
I285
aI0
aI0
aI0
aI0
aI0
aI0
aI0
aI0
aaa(lp1716
(lp1717
I0
aI285
aI0
aI0
aI0
aI0
aI0
aI0
aI0
aI0
aa(lp1718
I1
aI284
aI0
aI0
aI0
aI0
aI0
aI0
aI0
aI0
aa(lp1719
I2
aI283
aI0
aI0
aI0
aI0
aI0
aI0
aI0
aI0
aa(lp1720
I3
aI282
aI0
aI0
aI0
aI0
aI0
aI0
aI0
aI0
aa(lp1721
I4
aI281
aI0
aI0
aI0
aI0
aI0
aI1
aI0
aI0
aa(lp1722
I5
aI280
aI0
aI0
aI0
aI0
aI0
aI0
aI0
aI0
aa(lp1723
I6
aI279
aI0
aI0
aI0
aI0
aI0
aI0
aI0
aI0
aa(lp1724
I7
aI278
aI0
aI0
aI0
aI0
aI0
aI1
aI0
aI0
aa(lp1725
I8
aI277
aI0
aI0
aI0
aI0
aI0
aI1
aI0
aI0
aa(lp1726
I9
aI276
aI0
aI0
aI0
aI0
aI1
aI0
aI0
aI0
aa(lp1727
I10
aI275
aI0
aI0
aI0
aI0
aI2
aI0
aI0
aI0
aa(lp1728
I11
aI274
aI0
aI0
aI0
aI0
aI3
aI0
aI0
aI0
aa(lp1729
I12
aI273
aI0
aI0
aI0
aI0
aI0
aI0
aI0
aI0
aa(lp1730
I13
aI272
aI0
aI0
aI0
aI0
aI0
aI0
aI0
aI0
aa(lp1731
I14
aI271
aI0
aI0
aI0
aI0
aI0
aI1
aI0
aI0
aa(lp1732
I15
aI270
aI0
aI0
aI0
aI0
aI0
aI0
aI0
aI0
aa(lp1733
I16
aI269
aI0
aI0
aI0
aI0
aI0
aI1
aI0
aI0
aa(lp1734
I17
aI268
aI0
aI0
aI1
aI0
aI0
aI1
aI0
aI0
aa(lp1735
I18
aI267
aI0
aI0
aI0
aI0
aI0
aI1
aI0
aI0
aa(lp1736
I19
aI266
aI0
aI0
aI0
aI0
aI1
aI0
aI0
aI0
aa(lp1737
I20
aI265
aI0
aI0
aI0
aI0
aI2
aI0
aI0
aI0
aa(lp1738
I21
aI264
aI0
aI0
aI0
aI0
aI3
aI0
aI0
aI0
aa(lp1739
I22
aI263
aI0
aI0
aI0
aI0
aI3
aI0
aI0
aI0
aa(lp1740
I23
aI262
aI0
aI0
aI0
aI1
aI2
aI0
aI0
aI0
aa(lp1741
I24
aI261
aI0
aI0
aI0
aI2
aI1
aI0
aI0
aI0
aa(lp1742
I25
aI260
aI0
aI0
aI0
aI3
aI0
aI1
aI0
aI0
aa(lp1743
I26
aI259
aI0
aI0
aI0
aI4
aI0
aI1
aI0
aI0
aa(lp1744
I27
aI258
aI0
aI0
aI0
aI5
aI0
aI0
aI0
aI0
aa(lp1745
I28
aI257
aI0
aI0
aI0
aI6
aI0
aI0
aI0
aI0
aa(lp1746
I29
aI256
aI0
aI0
aI0
aI7
aI0
aI0
aI0
aI0
aa(lp1747
I30
aI255
aI0
aI0
aI0
aI8
aI0
aI0
aI0
aI0
aa(lp1748
I31
aI254
aI0
aI0
aI0
aI0
aI0
aI0
aI0
aI0
aa(lp1749
I32
aI253
aI0
aI0
aI0
aI0
aI0
aI1
aI0
aI0
aa(lp1750
I33
aI252
aI0
aI0
aI1
aI0
aI0
aI1
aI0
aI0
aa(lp1751
I34
aI251
aI0
aI0
aI0
aI0
aI0
aI1
aI0
aI0
aa(lp1752
I35
aI250
aI0
aI0
aI0
aI0
aI1
aI0
aI0
aI0
aa(lp1753
I36
aI249
aI0
aI0
aI0
aI0
aI2
aI0
aI0
aI0
aa(lp1754
I37
aI248
aI0
aI0
aI0
aI0
aI3
aI0
aI0
aI0
aa(lp1755
I38
aI247
aI0
aI0
aI0
aI0
aI0
aI1
aI0
aI0
aa(lp1756
I39
aI246
aI0
aI0
aI0
aI0
aI1
aI0
aI0
aI0
aa(lp1757
I40
aI245
aI0
aI0
aI0
aI0
aI2
aI0
aI0
aI0
aa(lp1758
I41
aI244
aI0
aI0
aI0
aI0
aI3
aI0
aI0
aI0
aa(lp1759
I42
aI243
aI0
aI1
aI0
aI0
aI0
aI1
aI0
aI0
aa(lp1760
I43
aI242
aI0
aI1
aI0
aI0
aI1
aI0
aI0
aI0
aa(lp1761
I44
aI241
aI0
aI1
aI0
aI0
aI2
aI0
aI0
aI0
aa(lp1762
I45
aI240
aI0
aI1
aI0
aI0
aI3
aI0
aI0
aI0
aa(lp1763
I46
aI239
aI0
aI0
aI0
aI0
aI3
aI0
aI0
aI0
aa(lp1764
I47
aI238
aI0
aI0
aI0
aI1
aI2
aI0
aI0
aI0
aa(lp1765
I48
aI237
aI0
aI0
aI0
aI2
aI1
aI0
aI0
aI0
aa(lp1766
I49
aI236
aI0
aI0
aI0
aI3
aI0
aI1
aI0
aI0
aa(lp1767
I50
aI235
aI0
aI0
aI0
aI4
aI0
aI1
aI0
aI0
aa(lp1768
I51
aI234
aI0
aI0
aI0
aI5
aI0
aI0
aI0
aI0
aa(lp1769
I52
aI233
aI0
aI0
aI0
aI6
aI0
aI0
aI0
aI0
aa(lp1770
I53
aI232
aI0
aI0
aI0
aI7
aI0
aI0
aI0
aI0
aa(lp1771
I54
aI231
aI0
aI0
aI0
aI8
aI0
aI0
aI0
aI0
aa(lp1772
I55
aI230
aI0
aI0
aI0
aI8
aI0
aI0
aI0
aI0
aa(lp1773
I56
aI229
aI0
aI0
aI1
aI7
aI0
aI0
aI0
aI0
aa(lp1774
I57
aI228
aI0
aI0
aI2
aI6
aI0
aI0
aI0
aI0
aa(lp1775
I58
aI227
aI0
aI0
aI3
aI5
aI0
aI0
aI0
aI0
aa(lp1776
I59
aI226
aI0
aI0
aI4
aI4
aI0
aI1
aI0
aI0
aa(lp1777
I60
aI225
aI0
aI0
aI5
aI3
aI0
aI1
aI0
aI0
aa(lp1778
I61
aI224
aI0
aI0
aI6
aI2
aI1
aI0
aI0
aI0
aa(lp1779
I62
aI223
aI0
aI0
aI7
aI1
aI2
aI0
aI0
aI0
aa(lp1780
I63
aI222
aI0
aI0
aI8
aI0
aI3
aI0
aI0
aI0
aa(lp1781
I64
aI221
aI0
aI0
aI9
aI0
aI3
aI0
aI0
aI0
aa(lp1782
I65
aI220
aI0
aI0
aI10
aI0
aI2
aI0
aI0
aI0
aa(lp1783
I66
aI219
aI0
aI0
aI11
aI0
aI1
aI0
aI0
aI0
aa(lp1784
I67
aI218
aI0
aI0
aI12
aI0
aI0
aI1
aI0
aI0
aa(lp1785
I68
aI217
aI0
aI0
aI13
aI0
aI0
aI1
aI0
aI0
aa(lp1786
I69
aI216
aI0
aI0
aI14
aI0
aI0
aI0
aI0
aI0
aa(lp1787
I70
aI215
aI0
aI0
aI15
aI0
aI0
aI1
aI0
aI0
aa(lp1788
I71
aI214
aI0
aI0
aI16
aI0
aI0
aI0
aI0
aI0
aa(lp1789
I72
aI213
aI0
aI0
aI17
aI0
aI0
aI0
aI0
aI0
aa(lp1790
I73
aI212
aI0
aI0
aI18
aI0
aI0
aI0
aI0
aI0
aa(lp1791
I74
aI211
aI0
aI0
aI19
aI0
aI0
aI0
aI0
aI0
aa(lp1792
I75
aI210
aI0
aI1
aI0
aI0
aI0
aI1
aI0
aI0
aa(lp1793
I76
aI209
aI0
aI1
aI0
aI0
aI1
aI0
aI0
aI0
aa(lp1794
I77
aI208
aI0
aI1
aI0
aI0
aI2
aI0
aI0
aI0
aa(lp1795
I78
aI207
aI0
aI1
aI0
aI0
aI3
aI0
aI0
aI0
aa(lp1796
I79
aI206
aI1
aI0
aI0
aI0
aI1
aI0
aI0
aI0
aa(lp1797
I80
aI205
aI1
aI0
aI0
aI0
aI2
aI0
aI0
aI0
aa(lp1798
I81
aI204
aI1
aI0
aI0
aI0
aI3
aI0
aI0
aI0
aa(lp1799
I82
aI203
aI2
aI0
aI0
aI0
aI2
aI0
aI0
aI0
aa(lp1800
I83
aI202
aI2
aI0
aI0
aI0
aI3
aI0
aI0
aI0
aa(lp1801
I84
aI201
aI3
aI0
aI0
aI0
aI3
aI0
aI0
aI0
aa(lp1802
I85
aI200
aI0
aI0
aI0
aI0
aI3
aI0
aI0
aI0
aa(lp1803
I86
aI199
aI0
aI0
aI0
aI1
aI2
aI0
aI0
aI0
aa(lp1804
I87
aI198
aI0
aI0
aI0
aI2
aI1
aI0
aI0
aI0
aa(lp1805
I88
aI197
aI0
aI0
aI0
aI3
aI0
aI1
aI0
aI0
aa(lp1806
I89
aI196
aI0
aI0
aI0
aI4
aI0
aI1
aI0
aI0
aa(lp1807
I90
aI195
aI0
aI0
aI0
aI5
aI0
aI0
aI0
aI0
aa(lp1808
I91
aI194
aI0
aI0
aI0
aI6
aI0
aI0
aI0
aI0
aa(lp1809
I92
aI193
aI0
aI0
aI0
aI7
aI0
aI0
aI0
aI0
aa(lp1810
I93
aI192
aI0
aI0
aI0
aI8
aI0
aI0
aI0
aI0
aa(lp1811
I94
aI191
aI1
aI0
aI0
aI0
aI3
aI0
aI0
aI0
aa(lp1812
I95
aI190
aI1
aI0
aI0
aI1
aI2
aI0
aI0
aI0
aa(lp1813
I96
aI189
aI1
aI0
aI0
aI2
aI1
aI0
aI0
aI0
aa(lp1814
I97
aI188
aI1
aI0
aI0
aI3
aI0
aI1
aI0
aI0
aa(lp1815
I98
aI187
aI1
aI0
aI0
aI4
aI0
aI1
aI0
aI0
aa(lp1816
I99
aI186
aI1
aI0
aI0
aI5
aI0
aI0
aI0
aI0
aa(lp1817
I100
aI185
aI1
aI0
aI0
aI6
aI0
aI0
aI0
aI0
aa(lp1818
I101
aI184
aI1
aI0
aI0
aI7
aI0
aI0
aI0
aI0
aa(lp1819
I102
aI183
aI1
aI0
aI0
aI8
aI0
aI0
aI0
aI0
aa(lp1820
I103
aI182
aI0
aI0
aI0
aI8
aI0
aI0
aI0
aI0
aa(lp1821
I104
aI181
aI0
aI0
aI1
aI7
aI0
aI0
aI0
aI0
aa(lp1822
I105
aI180
aI0
aI0
aI2
aI6
aI0
aI0
aI0
aI0
aa(lp1823
I106
aI179
aI0
aI0
aI3
aI5
aI0
aI0
aI0
aI0
aa(lp1824
I107
aI178
aI0
aI0
aI4
aI4
aI0
aI1
aI0
aI0
aa(lp1825
I108
aI177
aI0
aI0
aI5
aI3
aI0
aI1
aI0
aI0
aa(lp1826
I109
aI176
aI0
aI0
aI6
aI2
aI1
aI0
aI0
aI0
aa(lp1827
I110
aI175
aI0
aI0
aI7
aI1
aI2
aI0
aI0
aI0
aa(lp1828
I111
aI174
aI0
aI0
aI8
aI0
aI3
aI0
aI0
aI0
aa(lp1829
I112
aI173
aI0
aI0
aI9
aI0
aI3
aI0
aI0
aI0
aa(lp1830
I113
aI172
aI0
aI0
aI10
aI0
aI2
aI0
aI0
aI0
aa(lp1831
I114
aI171
aI0
aI0
aI11
aI0
aI1
aI0
aI0
aI0
aa(lp1832
I115
aI170
aI0
aI0
aI12
aI0
aI0
aI1
aI0
aI0
aa(lp1833
I116
aI169
aI0
aI0
aI13
aI0
aI0
aI1
aI0
aI0
aa(lp1834
I117
aI168
aI0
aI0
aI14
aI0
aI0
aI0
aI0
aI0
aa(lp1835
I118
aI167
aI0
aI0
aI15
aI0
aI0
aI1
aI0
aI0
aa(lp1836
I119
aI166
aI0
aI0
aI16
aI0
aI0
aI0
aI0
aI0
aa(lp1837
I120
aI165
aI0
aI0
aI17
aI0
aI0
aI0
aI0
aI0
aa(lp1838
I121
aI164
aI0
aI0
aI18
aI0
aI0
aI0
aI0
aI0
aa(lp1839
I122
aI163
aI0
aI0
aI19
aI0
aI0
aI0
aI0
aI0
aa(lp1840
I123
aI162
aI0
aI0
aI19
aI0
aI0
aI0
aI0
aI0
aa(lp1841
I124
aI161
aI0
aI1
aI18
aI0
aI0
aI0
aI0
aI0
aa(lp1842
I125
aI160
aI0
aI2
aI17
aI0
aI0
aI0
aI0
aI0
aa(lp1843
I126
aI159
aI0
aI3
aI16
aI0
aI0
aI0
aI0
aI0
aa(lp1844
I127
aI158
aI0
aI4
aI15
aI0
aI0
aI1
aI0
aI0
aa(lp1845
I128
aI157
aI0
aI5
aI14
aI0
aI0
aI0
aI0
aI0
aa(lp1846
I129
aI156
aI0
aI6
aI13
aI0
aI0
aI1
aI0
aI0
aa(lp1847
I130
aI155
aI0
aI7
aI12
aI0
aI0
aI1
aI0
aI0
aa(lp1848
I131
aI154
aI0
aI8
aI11
aI0
aI1
aI0
aI0
aI0
aa(lp1849
I132
aI153
aI0
aI9
aI10
aI0
aI2
aI0
aI0
aI0
aa(lp1850
I133
aI152
aI0
aI10
aI9
aI0
aI3
aI0
aI0
aI0
aa(lp1851
I134
aI151
aI0
aI11
aI8
aI0
aI3
aI0
aI0
aI0
aa(lp1852
I135
aI150
aI0
aI12
aI7
aI1
aI2
aI0
aI0
aI0
aa(lp1853
I136
aI149
aI0
aI13
aI6
aI2
aI1
aI0
aI0
aI0
aa(lp1854
I137
aI148
aI0
aI14
aI5
aI3
aI0
aI1
aI0
aI0
aa(lp1855
I138
aI147
aI0
aI15
aI4
aI4
aI0
aI1
aI0
aI0
aa(lp1856
I139
aI146
aI0
aI16
aI3
aI5
aI0
aI0
aI0
aI0
aa(lp1857
I140
aI145
aI0
aI17
aI2
aI6
aI0
aI0
aI0
aI0
aa(lp1858
I141
aI144
aI0
aI18
aI1
aI7
aI0
aI0
aI0
aI0
aa(lp1859
I142
aI143
aI0
aI19
aI0
aI8
aI0
aI0
aI0
aI0
aa(lp1860
I143
aI142
aI0
aI20
aI0
aI8
aI0
aI0
aI0
aI0
aa(lp1861
I144
aI141
aI0
aI21
aI0
aI7
aI0
aI0
aI0
aI0
aa(lp1862
I145
aI140
aI0
aI22
aI0
aI6
aI0
aI0
aI0
aI0
aa(lp1863
I146
aI139
aI0
aI23
aI0
aI5
aI0
aI0
aI0
aI0
aa(lp1864
I147
aI138
aI0
aI24
aI0
aI4
aI0
aI1
aI0
aI0
aa(lp1865
I148
aI137
aI0
aI25
aI0
aI3
aI0
aI1
aI0
aI0
aa(lp1866
I149
aI136
aI0
aI26
aI0
aI2
aI1
aI0
aI0
aI0
aa(lp1867
I150
aI135
aI0
aI27
aI0
aI1
aI2
aI0
aI0
aI0
aa(lp1868
I151
aI134
aI0
aI28
aI0
aI0
aI3
aI0
aI0
aI0
aa(lp1869
I152
aI133
aI0
aI29
aI0
aI0
aI3
aI0
aI0
aI0
aa(lp1870
I153
aI132
aI0
aI30
aI0
aI0
aI2
aI0
aI0
aI0
aa(lp1871
I154
aI131
aI0
aI31
aI0
aI0
aI1
aI0
aI0
aI0
aa(lp1872
I155
aI130
aI0
aI32
aI0
aI0
aI0
aI1
aI0
aI0
aa(lp1873
I156
aI129
aI0
aI33
aI1
aI0
aI0
aI1
aI0
aI0
aa(lp1874
I157
aI128
aI0
aI34
aI0
aI0
aI0
aI1
aI0
aI0
aa(lp1875
I158
aI127
aI0
aI35
aI0
aI0
aI0
aI0
aI0
aI0
aa(lp1876
I159
aI126
aI0
aI36
aI0
aI0
aI3
aI0
aI0
aI0
aa(lp1877
I160
aI125
aI0
aI37
aI0
aI0
aI2
aI0
aI0
aI0
aa(lp1878
I161
aI124
aI0
aI38
aI0
aI0
aI1
aI0
aI0
aI0
aa(lp1879
I162
aI123
aI0
aI39
aI0
aI0
aI0
aI1
aI0
aI0
aa(lp1880
I163
aI122
aI0
aI40
aI0
aI0
aI0
aI1
aI0
aI0
aa(lp1881
I164
aI121
aI0
aI41
aI0
aI0
aI0
aI0
aI0
aI0
aa(lp1882
I165
aI120
aI0
aI42
aI0
aI0
aI0
aI0
aI0
aI0
aa(lp1883
I166
aI119
aI0
aI43
aI0
aI0
aI0
aI1
aI0
aI0
aa(lp1884
I167
aI118
aI0
aI44
aI0
aI0
aI0
aI0
aI0
aI0
aa(lp1885
I168
aI117
aI0
aI45
aI0
aI0
aI0
aI0
aI0
aI0
aa(lp1886
I169
aI116
aI0
aI46
aI0
aI0
aI0
aI0
aI0
aI0
aa(lp1887
I170
aI115
aI0
aI47
aI0
aI0
aI0
aI0
aI0
aI0
aa(lp1888
I171
aI114
aI0
aI47
aI0
aI0
aI0
aI0
aI0
aI0
aa(lp1889
I172
aI113
aI1
aI46
aI0
aI0
aI0
aI0
aI0
aI0
aa(lp1890
I173
aI112
aI2
aI45
aI0
aI0
aI0
aI0
aI0
aI0
aa(lp1891
I174
aI111
aI3
aI44
aI0
aI0
aI0
aI0
aI0
aI0
aa(lp1892
I175
aI110
aI4
aI43
aI0
aI0
aI0
aI1
aI0
aI0
aa(lp1893
I176
aI109
aI5
aI42
aI0
aI0
aI0
aI0
aI0
aI0
aa(lp1894
I177
aI108
aI6
aI41
aI0
aI0
aI0
aI0
aI0
aI0
aa(lp1895
I178
aI107
aI7
aI40
aI0
aI0
aI0
aI1
aI0
aI0
aa(lp1896
I179
aI106
aI8
aI39
aI0
aI0
aI0
aI1
aI0
aI0
aa(lp1897
I180
aI105
aI9
aI38
aI0
aI0
aI1
aI0
aI0
aI0
aa(lp1898
I181
aI104
aI10
aI37
aI0
aI0
aI2
aI0
aI0
aI0
aa(lp1899
I182
aI103
aI11
aI36
aI0
aI0
aI3
aI0
aI0
aI0
aa(lp1900
I183
aI102
aI12
aI35
aI0
aI0
aI0
aI0
aI0
aI0
aa(lp1901
I184
aI101
aI13
aI34
aI0
aI0
aI0
aI1
aI0
aI0
aa(lp1902
I185
aI100
aI14
aI33
aI1
aI0
aI0
aI1
aI0
aI0
aa(lp1903
I186
aI99
aI15
aI32
aI0
aI0
aI0
aI1
aI0
aI0
aa(lp1904
I187
aI98
aI16
aI31
aI0
aI0
aI1
aI0
aI0
aI0
aa(lp1905
I188
aI97
aI17
aI30
aI0
aI0
aI2
aI0
aI0
aI0
aa(lp1906
I189
aI96
aI18
aI29
aI0
aI0
aI3
aI0
aI0
aI0
aa(lp1907
I190
aI95
aI19
aI28
aI0
aI0
aI3
aI0
aI0
aI0
aa(lp1908
I191
aI94
aI20
aI27
aI0
aI1
aI2
aI0
aI0
aI0
aa(lp1909
I192
aI93
aI21
aI26
aI0
aI2
aI1
aI0
aI0
aI0
aa(lp1910
I193
aI92
aI22
aI25
aI0
aI3
aI0
aI1
aI0
aI0
aa(lp1911
I194
aI91
aI23
aI24
aI0
aI4
aI0
aI1
aI0
aI0
aa(lp1912
I195
aI90
aI24
aI23
aI0
aI5
aI0
aI0
aI0
aI0
aa(lp1913
I196
aI89
aI25
aI22
aI0
aI6
aI0
aI0
aI0
aI0
aa(lp1914
I197
aI88
aI26
aI21
aI0
aI7
aI0
aI0
aI0
aI0
aa(lp1915
I198
aI87
aI27
aI20
aI0
aI8
aI0
aI0
aI0
aI0
aa(lp1916
I199
aI86
aI28
aI19
aI0
aI8
aI0
aI0
aI0
aI0
aa(lp1917
I200
aI85
aI29
aI18
aI1
aI7
aI0
aI0
aI0
aI0
aa(lp1918
I201
aI84
aI30
aI17
aI2
aI6
aI0
aI0
aI0
aI0
aa(lp1919
I202
aI83
aI31
aI16
aI3
aI5
aI0
aI0
aI0
aI0
aa(lp1920
I203
aI82
aI32
aI15
aI4
aI4
aI0
aI1
aI0
aI0
aa(lp1921
I204
aI81
aI33
aI14
aI5
aI3
aI0
aI1
aI0
aI0
aa(lp1922
I205
aI80
aI34
aI13
aI6
aI2
aI1
aI0
aI0
aI0
aa(lp1923
I206
aI79
aI35
aI12
aI7
aI1
aI2
aI0
aI0
aI0
aa(lp1924
I207
aI78
aI36
aI11
aI8
aI0
aI3
aI0
aI0
aI0
aa(lp1925
I208
aI77
aI37
aI10
aI9
aI0
aI3
aI0
aI0
aI0
aa(lp1926
I209
aI76
aI38
aI9
aI10
aI0
aI2
aI0
aI0
aI0
aa(lp1927
I210
aI75
aI39
aI8
aI11
aI0
aI1
aI0
aI0
aI0
aa(lp1928
I211
aI74
aI40
aI7
aI12
aI0
aI0
aI1
aI0
aI0
aa(lp1929
I212
aI73
aI41
aI6
aI13
aI0
aI0
aI1
aI0
aI0
aa(lp1930
I213
aI72
aI42
aI5
aI14
aI0
aI0
aI0
aI0
aI0
aa(lp1931
I214
aI71
aI43
aI4
aI15
aI0
aI0
aI1
aI0
aI0
aa(lp1932
I215
aI70
aI44
aI3
aI16
aI0
aI0
aI0
aI0
aI0
aa(lp1933
I216
aI69
aI45
aI2
aI17
aI0
aI0
aI0
aI0
aI0
aa(lp1934
I217
aI68
aI46
aI1
aI18
aI0
aI0
aI0
aI0
aI0
aa(lp1935
I218
aI67
aI47
aI0
aI19
aI0
aI0
aI0
aI0
aI0
aa(lp1936
I219
aI66
aI48
aI0
aI19
aI0
aI0
aI0
aI0
aI0
aa(lp1937
I220
aI65
aI49
aI0
aI18
aI0
aI0
aI0
aI0
aI0
aa(lp1938
I221
aI64
aI50
aI0
aI17
aI0
aI0
aI0
aI0
aI0
aa(lp1939
I222
aI63
aI51
aI0
aI16
aI0
aI0
aI0
aI0
aI0
aa(lp1940
I223
aI62
aI52
aI0
aI15
aI0
aI0
aI1
aI0
aI0
aa(lp1941
I224
aI61
aI53
aI0
aI14
aI0
aI0
aI0
aI0
aI0
aa(lp1942
I225
aI60
aI54
aI0
aI13
aI0
aI0
aI1
aI0
aI0
aa(lp1943
I226
aI59
aI55
aI0
aI12
aI0
aI0
aI1
aI0
aI0
aa(lp1944
I227
aI58
aI56
aI0
aI11
aI0
aI1
aI0
aI0
aI0
aa(lp1945
I228
aI57
aI57
aI0
aI10
aI0
aI2
aI0
aI0
aI0
aa(lp1946
I229
aI56
aI58
aI0
aI9
aI0
aI3
aI0
aI0
aI0
aa(lp1947
I230
aI55
aI59
aI0
aI8
aI0
aI3
aI0
aI0
aI0
aa(lp1948
I231
aI54
aI60
aI0
aI7
aI1
aI2
aI0
aI0
aI0
aa(lp1949
I232
aI53
aI61
aI0
aI6
aI2
aI1
aI0
aI0
aI0
aa(lp1950
I233
aI52
aI62
aI0
aI5
aI3
aI0
aI1
aI0
aI0
aa(lp1951
I234
aI51
aI63
aI0
aI4
aI4
aI0
aI1
aI0
aI0
aa(lp1952
I235
aI50
aI64
aI0
aI3
aI5
aI0
aI0
aI0
aI0
aa(lp1953
I236
aI49
aI65
aI0
aI2
aI6
aI0
aI0
aI0
aI0
aa(lp1954
I237
aI48
aI66
aI0
aI1
aI7
aI0
aI0
aI0
aI0
aa(lp1955
I238
aI47
aI67
aI0
aI0
aI8
aI0
aI0
aI0
aI0
aa(lp1956
I239
aI46
aI68
aI0
aI0
aI8
aI0
aI0
aI0
aI0
aa(lp1957
I240
aI45
aI69
aI0
aI0
aI7
aI0
aI0
aI0
aI0
aa(lp1958
I241
aI44
aI70
aI0
aI0
aI6
aI0
aI0
aI0
aI0
aa(lp1959
I242
aI43
aI71
aI0
aI0
aI5
aI0
aI0
aI0
aI0
aa(lp1960
I243
aI42
aI72
aI0
aI0
aI4
aI0
aI1
aI0
aI0
aa(lp1961
I244
aI41
aI73
aI0
aI0
aI3
aI0
aI1
aI0
aI0
aa(lp1962
I245
aI40
aI74
aI0
aI0
aI2
aI1
aI0
aI0
aI0
aa(lp1963
I246
aI39
aI75
aI0
aI0
aI1
aI2
aI0
aI0
aI0
aa(lp1964
I247
aI38
aI76
aI0
aI0
aI0
aI3
aI0
aI0
aI0
aa(lp1965
I248
aI37
aI77
aI1
aI0
aI0
aI3
aI0
aI0
aI0
aa(lp1966
I249
aI36
aI78
aI1
aI0
aI0
aI2
aI0
aI0
aI0
aa(lp1967
I250
aI35
aI79
aI1
aI0
aI0
aI1
aI0
aI0
aI0
aa(lp1968
I251
aI34
aI80
aI1
aI0
aI0
aI0
aI1
aI0
aI0
aa(lp1969
I252
aI33
aI81
aI0
aI0
aI0
aI3
aI0
aI0
aI0
aa(lp1970
I253
aI32
aI82
aI0
aI0
aI0
aI2
aI0
aI0
aI0
aa(lp1971
I254
aI31
aI83
aI0
aI0
aI0
aI1
aI0
aI0
aI0
aa(lp1972
I255
aI30
aI84
aI0
aI0
aI0
aI0
aI1
aI0
aI0
aa(lp1973
I256
aI29
aI85
aI0
aI0
aI8
aI0
aI0
aI0
aI0
aa(lp1974
I257
aI28
aI86
aI0
aI0
aI7
aI0
aI0
aI0
aI0
aa(lp1975
I258
aI27
aI87
aI0
aI0
aI6
aI0
aI0
aI0
aI0
aa(lp1976
I259
aI26
aI88
aI0
aI0
aI5
aI0
aI0
aI0
aI0
aa(lp1977
I260
aI25
aI89
aI0
aI0
aI4
aI0
aI1
aI0
aI0
aa(lp1978
I261
aI24
aI90
aI0
aI0
aI3
aI0
aI1
aI0
aI0
aa(lp1979
I262
aI23
aI91
aI0
aI0
aI2
aI1
aI0
aI0
aI0
aa(lp1980
I263
aI22
aI92
aI0
aI0
aI1
aI2
aI0
aI0
aI0
aa(lp1981
I264
aI21
aI93
aI0
aI0
aI0
aI3
aI0
aI0
aI0
aa(lp1982
I265
aI20
aI94
aI0
aI0
aI0
aI3
aI0
aI0
aI0
aa(lp1983
I266
aI19
aI95
aI0
aI0
aI0
aI2
aI0
aI0
aI0
aa(lp1984
I267
aI18
aI96
aI0
aI0
aI0
aI1
aI0
aI0
aI0
aa(lp1985
I268
aI17
aI97
aI0
aI0
aI0
aI0
aI1
aI0
aI0
aa(lp1986
I269
aI16
aI98
aI0
aI1
aI0
aI0
aI1
aI0
aI0
aa(lp1987
I270
aI15
aI99
aI0
aI0
aI0
aI0
aI1
aI0
aI0
aa(lp1988
I271
aI14
aI100
aI0
aI0
aI0
aI0
aI0
aI0
aI0
aa(lp1989
I272
aI13
aI101
aI0
aI0
aI0
aI0
aI1
aI0
aI0
aa(lp1990
I273
aI12
aI102
aI0
aI0
aI0
aI0
aI0
aI0
aI0
aa(lp1991
I274
aI11
aI103
aI0
aI0
aI0
aI3
aI0
aI0
aI0
aa(lp1992
I275
aI10
aI104
aI0
aI0
aI0
aI2
aI0
aI0
aI0
aa(lp1993
I276
aI9
aI105
aI0
aI0
aI0
aI1
aI0
aI0
aI0
aa(lp1994
I277
aI8
aI106
aI0
aI0
aI0
aI0
aI1
aI0
aI0
aa(lp1995
I278
aI7
aI107
aI0
aI0
aI0
aI0
aI1
aI0
aI0
aa(lp1996
I279
aI6
aI108
aI0
aI0
aI0
aI0
aI0
aI0
aI0
aa(lp1997
I280
aI5
aI109
aI0
aI0
aI0
aI0
aI0
aI0
aI0
aa(lp1998
I281
aI4
aI110
aI0
aI0
aI0
aI0
aI1
aI0
aI0
aa(lp1999
I282
aI3
aI111
aI0
aI0
aI0
aI0
aI0
aI0
aI0
aa(lp2000
I283
aI2
aI112
aI0
aI0
aI0
aI0
aI0
aI0
aI0
aa(lp2001
I284
aI1
aI113
aI0
aI0
aI0
aI0
aI0
aI0
aI0
aa(lp2002
I285
aI0
aI114
aI0
aI0
aI0
aI0
aI0
aI0
aI0
aa(lp2003
I286
aI0
aI114
aI0
aI0
aI0
aI0
aI0
aI0
aI0
aa(lp2004
I287
aI0
aI113
aI0
aI0
aI0
aI0
aI0
aI0
aI0
aa(lp2005
I288
aI0
aI112
aI0
aI0
aI0
aI0
aI0
aI0
aI0
aa(lp2006
I289
aI0
aI111
aI0
aI0
aI0
aI0
aI0
aI0
aI0
aa(lp2007
I290
aI0
aI110
aI0
aI0
aI0
aI0
aI1
aI0
aI0
aa(lp2008
I291
aI0
aI109
aI0
aI0
aI0
aI0
aI0
aI0
aI0
aa(lp2009
I292
aI0
aI108
aI0
aI0
aI0
aI0
aI0
aI0
aI0
aa(lp2010
I293
aI0
aI107
aI0
aI0
aI0
aI0
aI1
aI0
aI0
aa(lp2011
I294
aI0
aI106
aI0
aI0
aI0
aI0
aI1
aI0
aI0
aa(lp2012
I295
aI0
aI105
aI0
aI0
aI0
aI1
aI0
aI0
aI0
aa(lp2013
I296
aI0
aI104
aI0
aI0
aI0
aI2
aI0
aI0
aI0
aa(lp2014
I297
aI0
aI103
aI0
aI0
aI0
aI3
aI0
aI0
aI0
aa(lp2015
I298
aI0
aI102
aI0
aI0
aI0
aI0
aI0
aI0
aI0
aa(lp2016
I299
aI0
aI101
aI0
aI0
aI0
aI0
aI1
aI0
aI0
aa(lp2017
I300
aI0
aI100
aI0
aI0
aI0
aI0
aI0
aI0
aI0
aa(lp2018
I301
aI0
aI99
aI0
aI0
aI0
aI0
aI1
aI0
aI0
aa(lp2019
I302
aI0
aI98
aI0
aI1
aI0
aI0
aI1
aI0
aI0
aa(lp2020
I303
aI0
aI97
aI0
aI0
aI0
aI0
aI1
aI0
aI0
aa(lp2021
I304
aI0
aI96
aI0
aI0
aI0
aI1
aI0
aI0
aI0
aa(lp2022
I305
aI0
aI95
aI0
aI0
aI0
aI2
aI0
aI0
aI0
aa(lp2023
I306
aI0
aI94
aI0
aI0
aI0
aI3
aI0
aI0
aI0
aa(lp2024
I307
aI0
aI93
aI0
aI0
aI0
aI3
aI0
aI0
aI0
aa(lp2025
I308
aI0
aI92
aI0
aI0
aI1
aI2
aI0
aI0
aI0
aa(lp2026
I309
aI0
aI91
aI0
aI0
aI2
aI1
aI0
aI0
aI0
aa(lp2027
I310
aI0
aI90
aI0
aI0
aI3
aI0
aI1
aI0
aI0
aa(lp2028
I311
aI0
aI89
aI0
aI0
aI4
aI0
aI1
aI0
aI0
aa(lp2029
I312
aI0
aI88
aI0
aI0
aI5
aI0
aI0
aI0
aI0
aa(lp2030
I313
aI0
aI87
aI0
aI0
aI6
aI0
aI0
aI0
aI0
aa(lp2031
I314
aI0
aI86
aI0
aI0
aI7
aI0
aI0
aI0
aI0
aa(lp2032
I315
aI0
aI85
aI0
aI0
aI8
aI0
aI0
aI0
aI0
aa(lp2033
I316
aI0
aI84
aI0
aI0
aI0
aI0
aI1
aI0
aI0
aa(lp2034
I317
aI0
aI83
aI0
aI0
aI0
aI1
aI0
aI0
aI0
aa(lp2035
I318
aI0
aI82
aI0
aI0
aI0
aI2
aI0
aI0
aI0
aa(lp2036
I319
aI0
aI81
aI0
aI0
aI0
aI3
aI0
aI0
aI0
aa(lp2037
I320
aI0
aI80
aI1
aI0
aI0
aI0
aI1
aI0
aI0
aa(lp2038
I321
aI0
aI79
aI1
aI0
aI0
aI1
aI0
aI0
aI0
aa(lp2039
I322
aI0
aI78
aI1
aI0
aI0
aI2
aI0
aI0
aI0
aa(lp2040
I323
aI0
aI77
aI1
aI0
aI0
aI3
aI0
aI0
aI0
aa(lp2041
I324
aI0
aI76
aI0
aI0
aI0
aI3
aI0
aI0
aI0
aa(lp2042
I325
aI0
aI75
aI0
aI0
aI1
aI2
aI0
aI0
aI0
aa(lp2043
I326
aI0
aI74
aI0
aI0
aI2
aI1
aI0
aI0
aI0
aa(lp2044
I327
aI0
aI73
aI0
aI0
aI3
aI0
aI1
aI0
aI0
aa(lp2045
I328
aI0
aI72
aI0
aI0
aI4
aI0
aI1
aI0
aI0
aa(lp2046
I329
aI0
aI71
aI0
aI0
aI5
aI0
aI0
aI0
aI0
aa(lp2047
I330
aI0
aI70
aI0
aI0
aI6
aI0
aI0
aI0
aI0
aa(lp2048
I331
aI0
aI69
aI0
aI0
aI7
aI0
aI0
aI0
aI0
aa(lp2049
I332
aI0
aI68
aI0
aI0
aI8
aI0
aI0
aI0
aI0
aa(lp2050
I333
aI0
aI67
aI0
aI0
aI8
aI0
aI0
aI0
aI0
aa(lp2051
I334
aI0
aI66
aI0
aI1
aI7
aI0
aI0
aI0
aI0
aa(lp2052
I335
aI0
aI65
aI0
aI2
aI6
aI0
aI0
aI0
aI0
aa(lp2053
I336
aI0
aI64
aI0
aI3
aI5
aI0
aI0
aI0
aI0
aa(lp2054
I337
aI0
aI63
aI0
aI4
aI4
aI0
aI1
aI0
aI0
aa(lp2055
I338
aI0
aI62
aI0
aI5
aI3
aI0
aI1
aI0
aI0
aa(lp2056
I339
aI0
aI61
aI0
aI6
aI2
aI1
aI0
aI0
aI0
aa(lp2057
I340
aI0
aI60
aI0
aI7
aI1
aI2
aI0
aI0
aI0
aa(lp2058
I341
aI0
aI59
aI0
aI8
aI0
aI3
aI0
aI0
aI0
aa(lp2059
I342
aI0
aI58
aI0
aI9
aI0
aI3
aI0
aI0
aI0
aa(lp2060
I343
aI0
aI57
aI0
aI10
aI0
aI2
aI0
aI0
aI0
aa(lp2061
I344
aI0
aI56
aI0
aI11
aI0
aI1
aI0
aI0
aI0
aa(lp2062
I345
aI0
aI55
aI0
aI12
aI0
aI0
aI1
aI0
aI0
aa(lp2063
I346
aI0
aI54
aI0
aI13
aI0
aI0
aI1
aI0
aI0
aa(lp2064
I347
aI0
aI53
aI0
aI14
aI0
aI0
aI0
aI0
aI0
aa(lp2065
I348
aI0
aI52
aI0
aI15
aI0
aI0
aI1
aI0
aI0
aa(lp2066
I349
aI0
aI51
aI0
aI16
aI0
aI0
aI0
aI0
aI0
aa(lp2067
I350
aI0
aI50
aI0
aI17
aI0
aI0
aI0
aI0
aI0
aa(lp2068
I351
aI0
aI49
aI0
aI18
aI0
aI0
aI0
aI0
aI0
aa(lp2069
I352
aI0
aI48
aI0
aI19
aI0
aI0
aI0
aI0
aI0
aa(lp2070
I353
aI0
aI47
aI0
aI19
aI0
aI0
aI0
aI0
aI0
aa(lp2071
I354
aI0
aI46
aI1
aI18
aI0
aI0
aI0
aI0
aI0
aa(lp2072
I355
aI0
aI45
aI2
aI17
aI0
aI0
aI0
aI0
aI0
aa(lp2073
I356
aI0
aI44
aI3
aI16
aI0
aI0
aI0
aI0
aI0
aa(lp2074
I357
aI0
aI43
aI4
aI15
aI0
aI0
aI1
aI0
aI0
aa(lp2075
I358
aI0
aI42
aI5
aI14
aI0
aI0
aI0
aI0
aI0
aa(lp2076
I359
aI0
aI41
aI6
aI13
aI0
aI0
aI1
aI0
aI0
aa(lp2077
I360
aI0
aI40
aI7
aI12
aI0
aI0
aI1
aI0
aI0
aa(lp2078
I361
aI0
aI39
aI8
aI11
aI0
aI1
aI0
aI0
aI0
aa(lp2079
I362
aI0
aI38
aI9
aI10
aI0
aI2
aI0
aI0
aI0
aa(lp2080
I363
aI0
aI37
aI10
aI9
aI0
aI3
aI0
aI0
aI0
aa(lp2081
I364
aI0
aI36
aI11
aI8
aI0
aI3
aI0
aI0
aI0
aa(lp2082
I365
aI0
aI35
aI12
aI7
aI1
aI2
aI0
aI0
aI0
aa(lp2083
I366
aI0
aI34
aI13
aI6
aI2
aI1
aI0
aI0
aI0
aa(lp2084
I367
aI0
aI33
aI14
aI5
aI3
aI0
aI1
aI0
aI0
aa(lp2085
I368
aI0
aI32
aI15
aI4
aI4
aI0
aI1
aI0
aI0
aa(lp2086
I369
aI0
aI31
aI16
aI3
aI5
aI0
aI0
aI0
aI0
aa(lp2087
I370
aI0
aI30
aI17
aI2
aI6
aI0
aI0
aI0
aI0
aa(lp2088
I371
aI0
aI29
aI18
aI1
aI7
aI0
aI0
aI0
aI0
aa(lp2089
I372
aI0
aI28
aI19
aI0
aI8
aI0
aI0
aI0
aI0
aa(lp2090
I373
aI0
aI27
aI20
aI0
aI8
aI0
aI0
aI0
aI0
aa(lp2091
I374
aI0
aI26
aI21
aI0
aI7
aI0
aI0
aI0
aI0
aa(lp2092
I375
aI0
aI25
aI22
aI0
aI6
aI0
aI0
aI0
aI0
aa(lp2093
I376
aI0
aI24
aI23
aI0
aI5
aI0
aI0
aI0
aI0
aa(lp2094
I377
aI0
aI23
aI24
aI0
aI4
aI0
aI1
aI0
aI0
aa(lp2095
I378
aI0
aI22
aI25
aI0
aI3
aI0
aI1
aI0
aI0
aa(lp2096
I379
aI0
aI21
aI26
aI0
aI2
aI1
aI0
aI0
aI0
aa(lp2097
I380
aI0
aI20
aI27
aI0
aI1
aI2
aI0
aI0
aI0
aa(lp2098
I381
aI0
aI19
aI28
aI0
aI0
aI3
aI0
aI0
aI0
aa(lp2099
I382
aI0
aI18
aI29
aI0
aI0
aI3
aI0
aI0
aI0
aa(lp2100
I383
aI0
aI17
aI30
aI0
aI0
aI2
aI0
aI0
aI0
aa(lp2101
I384
aI0
aI16
aI31
aI0
aI0
aI1
aI0
aI0
aI0
aa(lp2102
I385
aI0
aI15
aI32
aI0
aI0
aI0
aI1
aI0
aI0
aa(lp2103
I386
aI0
aI14
aI33
aI1
aI0
aI0
aI1
aI0
aI0
aa(lp2104
I387
aI0
aI13
aI34
aI0
aI0
aI0
aI1
aI0
aI0
aa(lp2105
I388
aI0
aI12
aI35
aI0
aI0
aI0
aI0
aI0
aI0
aa(lp2106
I389
aI0
aI11
aI36
aI0
aI0
aI3
aI0
aI0
aI0
aa(lp2107
I390
aI0
aI10
aI37
aI0
aI0
aI2
aI0
aI0
aI0
aa(lp2108
I391
aI0
aI9
aI38
aI0
aI0
aI1
aI0
aI0
aI0
aa(lp2109
I392
aI0
aI8
aI39
aI0
aI0
aI0
aI1
aI0
aI0
aa(lp2110
I393
aI0
aI7
aI40
aI0
aI0
aI0
aI1
aI0
aI0
aa(lp2111
I394
aI0
aI6
aI41
aI0
aI0
aI0
aI0
aI0
aI0
aa(lp2112
I395
aI0
aI5
aI42
aI0
aI0
aI0
aI0
aI0
aI0
aa(lp2113
I396
aI0
aI4
aI43
aI0
aI0
aI0
aI1
aI0
aI0
aa(lp2114
I397
aI0
aI3
aI44
aI0
aI0
aI0
aI0
aI0
aI0
aa(lp2115
I398
aI0
aI2
aI45
aI0
aI0
aI0
aI0
aI0
aI0
aa(lp2116
I399
aI0
aI1
aI46
aI0
aI0
aI0
aI0
aI0
aI0
aa(lp2117
I400
aI0
aI0
aI47
aI0
aI0
aI0
aI0
aI0
aI0
aa(lp2118
I401
aI0
aI0
aI47
aI0
aI0
aI0
aI0
aI0
aI0
aa(lp2119
I402
aI0
aI0
aI46
aI0
aI0
aI0
aI0
aI0
aI0
aa(lp2120
I403
aI0
aI0
aI45
aI0
aI0
aI0
aI0
aI0
aI0
aa(lp2121
I404
aI0
aI0
aI44
aI0
aI0
aI0
aI0
aI0
aI0
aa(lp2122
I405
aI0
aI0
aI43
aI0
aI0
aI0
aI1
aI0
aI0
aa(lp2123
I406
aI0
aI0
aI42
aI0
aI0
aI0
aI0
aI0
aI0
aa(lp2124
I407
aI0
aI0
aI41
aI0
aI0
aI0
aI0
aI0
aI0
aa(lp2125
I408
aI0
aI0
aI40
aI0
aI0
aI0
aI1
aI0
aI0
aa(lp2126
I409
aI0
aI0
aI39
aI0
aI0
aI0
aI1
aI0
aI0
aa(lp2127
I410
aI0
aI0
aI38
aI0
aI0
aI1
aI0
aI0
aI0
aa(lp2128
I411
aI0
aI0
aI37
aI0
aI0
aI2
aI0
aI0
aI0
aa(lp2129
I412
aI0
aI0
aI36
aI0
aI0
aI3
aI0
aI0
aI0
aa(lp2130
I413
aI0
aI0
aI35
aI0
aI0
aI0
aI0
aI0
aI0
aa(lp2131
I414
aI0
aI0
aI34
aI0
aI0
aI0
aI1
aI0
aI0
aa(lp2132
I415
aI0
aI0
aI33
aI1
aI0
aI0
aI1
aI0
aI0
aa(lp2133
I416
aI0
aI0
aI32
aI0
aI0
aI0
aI1
aI0
aI0
aa(lp2134
I417
aI0
aI0
aI31
aI0
aI0
aI1
aI0
aI0
aI0
aa(lp2135
I418
aI0
aI0
aI30
aI0
aI0
aI2
aI0
aI0
aI0
aa(lp2136
I419
aI0
aI0
aI29
aI0
aI0
aI3
aI0
aI0
aI0
aa(lp2137
I420
aI0
aI0
aI28
aI0
aI0
aI3
aI0
aI0
aI0
aa(lp2138
I421
aI0
aI0
aI27
aI0
aI1
aI2
aI0
aI0
aI0
aa(lp2139
I422
aI0
aI0
aI26
aI0
aI2
aI1
aI0
aI0
aI0
aa(lp2140
I423
aI0
aI0
aI25
aI0
aI3
aI0
aI1
aI0
aI0
aa(lp2141
I424
aI0
aI0
aI24
aI0
aI4
aI0
aI1
aI0
aI0
aa(lp2142
I425
aI0
aI0
aI23
aI0
aI5
aI0
aI0
aI0
aI0
aa(lp2143
I426
aI0
aI0
aI22
aI0
aI6
aI0
aI0
aI0
aI0
aa(lp2144
I427
aI0
aI0
aI21
aI0
aI7
aI0
aI0
aI0
aI0
aa(lp2145
I428
aI0
aI0
aI20
aI0
aI8
aI0
aI0
aI0
aI0
aa(lp2146
I429
aI0
aI0
aI19
aI0
aI8
aI0
aI0
aI0
aI0
aa(lp2147
I430
aI0
aI0
aI18
aI1
aI7
aI0
aI0
aI0
aI0
aa(lp2148
I431
aI0
aI0
aI17
aI2
aI6
aI0
aI0
aI0
aI0
aa(lp2149
I432
aI0
aI0
aI16
aI3
aI5
aI0
aI0
aI0
aI0
aa(lp2150
I433
aI0
aI0
aI15
aI4
aI4
aI0
aI1
aI0
aI0
aa(lp2151
I434
aI0
aI0
aI14
aI5
aI3
aI0
aI1
aI0
aI0
aa(lp2152
I435
aI0
aI0
aI13
aI6
aI2
aI1
aI0
aI0
aI0
aa(lp2153
I436
aI0
aI0
aI12
aI7
aI1
aI2
aI0
aI0
aI0
aa(lp2154
I437
aI0
aI0
aI11
aI8
aI0
aI3
aI0
aI0
aI0
aa(lp2155
I438
aI0
aI0
aI10
aI9
aI0
aI3
aI0
aI0
aI0
aa(lp2156
I439
aI0
aI0
aI9
aI10
aI0
aI2
aI0
aI0
aI0
aa(lp2157
I440
aI0
aI0
aI8
aI11
aI0
aI1
aI0
aI0
aI0
aa(lp2158
I441
aI0
aI0
aI7
aI12
aI0
aI0
aI1
aI0
aI0
aa(lp2159
I442
aI0
aI0
aI6
aI13
aI0
aI0
aI1
aI0
aI0
aa(lp2160
I443
aI0
aI0
aI5
aI14
aI0
aI0
aI0
aI0
aI0
aa(lp2161
I444
aI0
aI0
aI4
aI15
aI0
aI0
aI1
aI0
aI0
aa(lp2162
I445
aI0
aI0
aI3
aI16
aI0
aI0
aI0
aI0
aI0
aa(lp2163
I446
aI0
aI0
aI2
aI17
aI0
aI0
aI0
aI0
aI0
aa(lp2164
I447
aI0
aI0
aI1
aI18
aI0
aI0
aI0
aI0
aI0
aa(lp2165
I448
aI0
aI0
aI0
aI19
aI0
aI0
aI0
aI0
aI0
aa(lp2166
I449
aI1
aI0
aI0
aI19
aI0
aI0
aI0
aI0
aI0
aa(lp2167
I450
aI1
aI0
aI0
aI18
aI0
aI0
aI0
aI0
aI0
aa(lp2168
I451
aI1
aI0
aI0
aI17
aI0
aI0
aI0
aI0
aI0
aa(lp2169
I452
aI1
aI0
aI0
aI16
aI0
aI0
aI0
aI0
aI0
aa(lp2170
I453
aI1
aI0
aI0
aI15
aI0
aI0
aI1
aI0
aI0
aa(lp2171
I454
aI1
aI0
aI0
aI14
aI0
aI0
aI0
aI0
aI0
aa(lp2172
I455
aI1
aI0
aI0
aI13
aI0
aI0
aI1
aI0
aI0
aa(lp2173
I456
aI1
aI0
aI0
aI12
aI0
aI0
aI1
aI0
aI0
aa(lp2174
I457
aI1
aI0
aI0
aI11
aI0
aI1
aI0
aI0
aI0
aa(lp2175
I458
aI1
aI0
aI0
aI10
aI0
aI2
aI0
aI0
aI0
aa(lp2176
I459
aI1
aI0
aI0
aI9
aI0
aI3
aI0
aI0
aI0
aa(lp2177
I460
aI1
aI0
aI0
aI8
aI0
aI3
aI0
aI0
aI0
aa(lp2178
I461
aI1
aI0
aI0
aI7
aI1
aI2
aI0
aI0
aI0
aa(lp2179
I462
aI1
aI0
aI0
aI6
aI2
aI1
aI0
aI0
aI0
aa(lp2180
I463
aI1
aI0
aI0
aI5
aI3
aI0
aI1
aI0
aI0
aa(lp2181
I464
aI1
aI0
aI0
aI4
aI4
aI0
aI1
aI0
aI0
aa(lp2182
I465
aI1
aI0
aI0
aI3
aI5
aI0
aI0
aI0
aI0
aa(lp2183
I466
aI1
aI0
aI0
aI2
aI6
aI0
aI0
aI0
aI0
aa(lp2184
I467
aI1
aI0
aI0
aI1
aI7
aI0
aI0
aI0
aI0
aa(lp2185
I468
aI1
aI0
aI0
aI0
aI8
aI0
aI0
aI0
aI0
aa(lp2186
I469
aI0
aI0
aI0
aI19
aI0
aI0
aI0
aI0
aI0
aa(lp2187
I470
aI0
aI0
aI0
aI18
aI0
aI0
aI0
aI0
aI0
aa(lp2188
I471
aI0
aI0
aI0
aI17
aI0
aI0
aI0
aI0
aI0
aa(lp2189
I472
aI0
aI0
aI0
aI16
aI0
aI0
aI0
aI0
aI0
aa(lp2190
I473
aI0
aI0
aI0
aI15
aI0
aI0
aI1
aI0
aI0
aa(lp2191
I474
aI0
aI0
aI0
aI14
aI0
aI0
aI0
aI0
aI0
aa(lp2192
I475
aI0
aI0
aI0
aI13
aI0
aI0
aI1
aI0
aI0
aa(lp2193
I476
aI0
aI0
aI0
aI12
aI0
aI0
aI1
aI0
aI0
aa(lp2194
I477
aI0
aI0
aI0
aI11
aI0
aI1
aI0
aI0
aI0
aa(lp2195
I478
aI0
aI0
aI0
aI10
aI0
aI2
aI0
aI0
aI0
aa(lp2196
I479
aI0
aI0
aI0
aI9
aI0
aI3
aI0
aI0
aI0
aa(lp2197
I480
aI0
aI0
aI0
aI8
aI0
aI3
aI0
aI0
aI0
aa(lp2198
I481
aI0
aI0
aI0
aI7
aI1
aI2
aI0
aI0
aI0
aa(lp2199
I482
aI0
aI0
aI0
aI6
aI2
aI1
aI0
aI0
aI0
aa(lp2200
I483
aI0
aI0
aI0
aI5
aI3
aI0
aI1
aI0
aI0
aa(lp2201
I484
aI0
aI0
aI0
aI4
aI4
aI0
aI1
aI0
aI0
aa(lp2202
I485
aI0
aI0
aI0
aI3
aI5
aI0
aI0
aI0
aI0
aa(lp2203
I486
aI0
aI0
aI0
aI2
aI6
aI0
aI0
aI0
aI0
aa(lp2204
I487
aI0
aI0
aI0
aI1
aI7
aI0
aI0
aI0
aI0
aa(lp2205
I488
aI0
aI0
aI0
aI0
aI8
aI0
aI0
aI0
aI0
aa(lp2206
I489
aI3
aI0
aI0
aI0
aI8
aI0
aI0
aI0
aI0
aa(lp2207
I490
aI3
aI0
aI0
aI0
aI7
aI0
aI0
aI0
aI0
aa(lp2208
I491
aI3
aI0
aI0
aI0
aI6
aI0
aI0
aI0
aI0
aa(lp2209
I492
aI3
aI0
aI0
aI0
aI5
aI0
aI0
aI0
aI0
aa(lp2210
I493
aI3
aI0
aI0
aI0
aI4
aI0
aI1
aI0
aI0
aa(lp2211
I494
aI3
aI0
aI0
aI0
aI3
aI0
aI1
aI0
aI0
aa(lp2212
I495
aI3
aI0
aI0
aI0
aI2
aI1
aI0
aI0
aI0
aa(lp2213
I496
aI3
aI0
aI0
aI0
aI1
aI2
aI0
aI0
aI0
aa(lp2214
I497
aI3
aI0
aI0
aI0
aI0
aI3
aI0
aI0
aI0
aa(lp2215
I498
aI2
aI0
aI0
aI0
aI8
aI0
aI0
aI0
aI0
aa(lp2216
I499
aI2
aI0
aI0
aI0
aI7
aI0
aI0
aI0
aI0
aa(lp2217
I500
aI2
aI0
aI0
aI0
aI6
aI0
aI0
aI0
aI0
aa(lp2218
I501
aI2
aI0
aI0
aI0
aI5
aI0
aI0
aI0
aI0
aa(lp2219
I502
aI2
aI0
aI0
aI0
aI4
aI0
aI1
aI0
aI0
aa(lp2220
I503
aI2
aI0
aI0
aI0
aI3
aI0
aI1
aI0
aI0
aa(lp2221
I504
aI2
aI0
aI0
aI0
aI2
aI1
aI0
aI0
aI0
aa(lp2222
I505
aI2
aI0
aI0
aI0
aI1
aI2
aI0
aI0
aI0
aa(lp2223
I506
aI2
aI0
aI0
aI0
aI0
aI3
aI0
aI0
aI0
aa(lp2224
I507
aI1
aI0
aI0
aI0
aI8
aI0
aI0
aI0
aI0
aa(lp2225
I508
aI1
aI0
aI0
aI0
aI7
aI0
aI0
aI0
aI0
aa(lp2226
I509
aI1
aI0
aI0
aI0
aI6
aI0
aI0
aI0
aI0
aa(lp2227
I510
aI1
aI0
aI0
aI0
aI5
aI0
aI0
aI0
aI0
aa(lp2228
I511
aI1
aI0
aI0
aI0
aI4
aI0
aI1
aI0
aI0
aa(lp2229
I512
aI1
aI0
aI0
aI0
aI3
aI0
aI1
aI0
aI0
aa(lp2230
I513
aI1
aI0
aI0
aI0
aI2
aI1
aI0
aI0
aI0
aa(lp2231
I514
aI1
aI0
aI0
aI0
aI1
aI2
aI0
aI0
aI0
aa(lp2232
I515
aI1
aI0
aI0
aI0
aI0
aI3
aI0
aI0
aI0
aa(lp2233
I516
aI0
aI1
aI0
aI0
aI8
aI0
aI0
aI0
aI0
aa(lp2234
I517
aI0
aI1
aI0
aI0
aI7
aI0
aI0
aI0
aI0
aa(lp2235
I518
aI0
aI1
aI0
aI0
aI6
aI0
aI0
aI0
aI0
aa(lp2236
I519
aI0
aI1
aI0
aI0
aI5
aI0
aI0
aI0
aI0
aa(lp2237
I520
aI0
aI1
aI0
aI0
aI4
aI0
aI1
aI0
aI0
aa(lp2238
I521
aI0
aI1
aI0
aI0
aI3
aI0
aI1
aI0
aI0
aa(lp2239
I522
aI0
aI1
aI0
aI0
aI2
aI1
aI0
aI0
aI0
aa(lp2240
I523
aI0
aI1
aI0
aI0
aI1
aI2
aI0
aI0
aI0
aa(lp2241
I524
aI0
aI1
aI0
aI0
aI0
aI3
aI0
aI0
aI0
aa(lp2242
I525
aI0
aI0
aI47
aI0
aI0
aI0
aI0
aI0
aI0
aa(lp2243
I526
aI0
aI0
aI46
aI0
aI0
aI0
aI0
aI0
aI0
aa(lp2244
I527
aI0
aI0
aI45
aI0
aI0
aI0
aI0
aI0
aI0
aa(lp2245
I528
aI0
aI0
aI44
aI0
aI0
aI0
aI0
aI0
aI0
aa(lp2246
I529
aI0
aI0
aI43
aI0
aI0
aI0
aI1
aI0
aI0
aa(lp2247
I530
aI0
aI0
aI42
aI0
aI0
aI0
aI0
aI0
aI0
aa(lp2248
I531
aI0
aI0
aI41
aI0
aI0
aI0
aI0
aI0
aI0
aa(lp2249
I532
aI0
aI0
aI40
aI0
aI0
aI0
aI1
aI0
aI0
aa(lp2250
I533
aI0
aI0
aI39
aI0
aI0
aI0
aI1
aI0
aI0
aa(lp2251
I534
aI0
aI0
aI38
aI0
aI0
aI1
aI0
aI0
aI0
aa(lp2252
I535
aI0
aI0
aI37
aI0
aI0
aI2
aI0
aI0
aI0
aa(lp2253
I536
aI0
aI0
aI36
aI0
aI0
aI3
aI0
aI0
aI0
aa(lp2254
I537
aI0
aI0
aI35
aI0
aI0
aI0
aI0
aI0
aI0
aa(lp2255
I538
aI0
aI0
aI34
aI0
aI0
aI0
aI1
aI0
aI0
aa(lp2256
I539
aI0
aI0
aI33
aI1
aI0
aI0
aI1
aI0
aI0
aa(lp2257
I540
aI0
aI0
aI32
aI0
aI0
aI0
aI1
aI0
aI0
aa(lp2258
I541
aI0
aI0
aI31
aI0
aI0
aI1
aI0
aI0
aI0
aa(lp2259
I542
aI0
aI0
aI30
aI0
aI0
aI2
aI0
aI0
aI0
aa(lp2260
I543
aI0
aI0
aI29
aI0
aI0
aI3
aI0
aI0
aI0
aa(lp2261
I544
aI0
aI0
aI28
aI0
aI0
aI3
aI0
aI0
aI0
aa(lp2262
I545
aI0
aI0
aI27
aI0
aI1
aI2
aI0
aI0
aI0
aa(lp2263
I546
aI0
aI0
aI26
aI0
aI2
aI1
aI0
aI0
aI0
aa(lp2264
I547
aI0
aI0
aI25
aI0
aI3
aI0
aI1
aI0
aI0
aa(lp2265
I548
aI0
aI0
aI24
aI0
aI4
aI0
aI1
aI0
aI0
aa(lp2266
I549
aI0
aI0
aI23
aI0
aI5
aI0
aI0
aI0
aI0
aa(lp2267
I550
aI0
aI0
aI22
aI0
aI6
aI0
aI0
aI0
aI0
aa(lp2268
I551
aI0
aI0
aI21
aI0
aI7
aI0
aI0
aI0
aI0
aa(lp2269
I552
aI0
aI0
aI20
aI0
aI8
aI0
aI0
aI0
aI0
aa(lp2270
I553
aI0
aI0
aI19
aI0
aI8
aI0
aI0
aI0
aI0
aa(lp2271
I554
aI0
aI0
aI18
aI1
aI7
aI0
aI0
aI0
aI0
aa(lp2272
I555
aI0
aI0
aI17
aI2
aI6
aI0
aI0
aI0
aI0
aa(lp2273
I556
aI0
aI0
aI16
aI3
aI5
aI0
aI0
aI0
aI0
aa(lp2274
I557
aI0
aI0
aI15
aI4
aI4
aI0
aI1
aI0
aI0
aa(lp2275
I558
aI0
aI0
aI14
aI5
aI3
aI0
aI1
aI0
aI0
aa(lp2276
I559
aI0
aI0
aI13
aI6
aI2
aI1
aI0
aI0
aI0
aa(lp2277
I560
aI0
aI0
aI12
aI7
aI1
aI2
aI0
aI0
aI0
aa(lp2278
I561
aI0
aI0
aI11
aI8
aI0
aI3
aI0
aI0
aI0
aa(lp2279
I562
aI0
aI0
aI10
aI9
aI0
aI3
aI0
aI0
aI0
aa(lp2280
I563
aI0
aI0
aI9
aI10
aI0
aI2
aI0
aI0
aI0
aa(lp2281
I564
aI0
aI0
aI8
aI11
aI0
aI1
aI0
aI0
aI0
aa(lp2282
I565
aI0
aI0
aI7
aI12
aI0
aI0
aI1
aI0
aI0
aa(lp2283
I566
aI0
aI0
aI6
aI13
aI0
aI0
aI1
aI0
aI0
aa(lp2284
I567
aI0
aI0
aI5
aI14
aI0
aI0
aI0
aI0
aI0
aa(lp2285
I568
aI0
aI0
aI4
aI15
aI0
aI0
aI1
aI0
aI0
aa(lp2286
I569
aI0
aI0
aI3
aI16
aI0
aI0
aI0
aI0
aI0
aa(lp2287
I570
aI0
aI0
aI2
aI17
aI0
aI0
aI0
aI0
aI0
aa(lp2288
I571
aI0
aI0
aI1
aI18
aI0
aI0
aI0
aI0
aI0
aa(lp2289
I572
aI0
aI0
aI0
aI19
aI0
aI0
aI0
aI0
aI0
aa(lp2290
I573
aI0
aI0
aI0
aI19
aI0
aI0
aI0
aI0
aI0
aa(lp2291
I574
aI0
aI0
aI0
aI18
aI0
aI0
aI0
aI0
aI0
aa(lp2292
I575
aI0
aI0
aI0
aI17
aI0
aI0
aI0
aI0
aI0
aa(lp2293
I576
aI0
aI0
aI0
aI16
aI0
aI0
aI0
aI0
aI0
aa(lp2294
I577
aI0
aI0
aI0
aI15
aI0
aI0
aI1
aI0
aI0
aa(lp2295
I578
aI0
aI0
aI0
aI14
aI0
aI0
aI0
aI0
aI0
aa(lp2296
I579
aI0
aI0
aI0
aI13
aI0
aI0
aI1
aI0
aI0
aa(lp2297
I580
aI0
aI0
aI0
aI12
aI0
aI0
aI1
aI0
aI0
aa(lp2298
I581
aI0
aI0
aI0
aI11
aI0
aI1
aI0
aI0
aI0
aa(lp2299
I582
aI0
aI0
aI0
aI10
aI0
aI2
aI0
aI0
aI0
aa(lp2300
I583
aI0
aI0
aI0
aI9
aI0
aI3
aI0
aI0
aI0
aa(lp2301
I584
aI0
aI0
aI0
aI8
aI0
aI3
aI0
aI0
aI0
aa(lp2302
I585
aI0
aI0
aI0
aI7
aI1
aI2
aI0
aI0
aI0
aa(lp2303
I586
aI0
aI0
aI0
aI6
aI2
aI1
aI0
aI0
aI0
aa(lp2304
I587
aI0
aI0
aI0
aI5
aI3
aI0
aI1
aI0
aI0
aa(lp2305
I588
aI0
aI0
aI0
aI4
aI4
aI0
aI1
aI0
aI0
aa(lp2306
I589
aI0
aI0
aI0
aI3
aI5
aI0
aI0
aI0
aI0
aa(lp2307
I590
aI0
aI0
aI0
aI2
aI6
aI0
aI0
aI0
aI0
aa(lp2308
I591
aI0
aI0
aI0
aI1
aI7
aI0
aI0
aI0
aI0
aa(lp2309
I592
aI0
aI0
aI0
aI0
aI8
aI0
aI0
aI0
aI0
aa(lp2310
I593
aI0
aI1
aI0
aI0
aI8
aI0
aI0
aI0
aI0
aa(lp2311
I594
aI0
aI1
aI0
aI0
aI7
aI0
aI0
aI0
aI0
aa(lp2312
I595
aI0
aI1
aI0
aI0
aI6
aI0
aI0
aI0
aI0
aa(lp2313
I596
aI0
aI1
aI0
aI0
aI5
aI0
aI0
aI0
aI0
aa(lp2314
I597
aI0
aI1
aI0
aI0
aI4
aI0
aI1
aI0
aI0
aa(lp2315
I598
aI0
aI1
aI0
aI0
aI3
aI0
aI1
aI0
aI0
aa(lp2316
I599
aI0
aI1
aI0
aI0
aI2
aI1
aI0
aI0
aI0
aa(lp2317
I600
aI0
aI1
aI0
aI0
aI1
aI2
aI0
aI0
aI0
aa(lp2318
I601
aI0
aI1
aI0
aI0
aI0
aI3
aI0
aI0
aI0
aa(lp2319
I602
aI0
aI0
aI0
aI0
aI8
aI0
aI0
aI0
aI0
aa(lp2320
I603
aI0
aI0
aI0
aI0
aI7
aI0
aI0
aI0
aI0
aa(lp2321
I604
aI0
aI0
aI0
aI0
aI6
aI0
aI0
aI0
aI0
aa(lp2322
I605
aI0
aI0
aI0
aI0
aI5
aI0
aI0
aI0
aI0
aa(lp2323
I606
aI0
aI0
aI0
aI0
aI4
aI0
aI1
aI0
aI0
aa(lp2324
I607
aI0
aI0
aI0
aI0
aI3
aI0
aI1
aI0
aI0
aa(lp2325
I608
aI0
aI0
aI0
aI0
aI2
aI1
aI0
aI0
aI0
aa(lp2326
I609
aI0
aI0
aI0
aI0
aI1
aI2
aI0
aI0
aI0
aa(lp2327
I610
aI0
aI0
aI0
aI0
aI0
aI3
aI0
aI0
aI0
aa(lp2328
I611
aI0
aI3
aI0
aI0
aI0
aI3
aI0
aI0
aI0
aa(lp2329
I612
aI0
aI2
aI0
aI0
aI0
aI3
aI0
aI0
aI0
aa(lp2330
I613
aI0
aI2
aI0
aI0
aI0
aI2
aI0
aI0
aI0
aa(lp2331
I614
aI0
aI1
aI0
aI0
aI0
aI3
aI0
aI0
aI0
aa(lp2332
I615
aI0
aI1
aI0
aI0
aI0
aI2
aI0
aI0
aI0
aa(lp2333
I616
aI0
aI1
aI0
aI0
aI0
aI1
aI0
aI0
aI0
aa(lp2334
I617
aI0
aI0
aI1
aI0
aI0
aI3
aI0
aI0
aI0
aa(lp2335
I618
aI0
aI0
aI1
aI0
aI0
aI2
aI0
aI0
aI0
aa(lp2336
I619
aI0
aI0
aI1
aI0
aI0
aI1
aI0
aI0
aI0
aa(lp2337
I620
aI0
aI0
aI1
aI0
aI0
aI0
aI1
aI0
aI0
aa(lp2338
I621
aI0
aI0
aI0
aI0
aI8
aI0
aI0
aI0
aI0
aa(lp2339
I622
aI0
aI0
aI0
aI0
aI7
aI0
aI0
aI0
aI0
aa(lp2340
I623
aI0
aI0
aI0
aI0
aI6
aI0
aI0
aI0
aI0
aa(lp2341
I624
aI0
aI0
aI0
aI0
aI5
aI0
aI0
aI0
aI0
aa(lp2342
I625
aI0
aI0
aI0
aI0
aI4
aI0
aI1
aI0
aI0
aa(lp2343
I626
aI0
aI0
aI0
aI0
aI3
aI0
aI1
aI0
aI0
aa(lp2344
I627
aI0
aI0
aI0
aI0
aI2
aI1
aI0
aI0
aI0
aa(lp2345
I628
aI0
aI0
aI0
aI0
aI1
aI2
aI0
aI0
aI0
aa(lp2346
I629
aI0
aI0
aI0
aI0
aI0
aI3
aI0
aI0
aI0
aa(lp2347
I630
aI0
aI0
aI1
aI0
aI0
aI3
aI0
aI0
aI0
aa(lp2348
I631
aI0
aI0
aI1
aI0
aI0
aI2
aI0
aI0
aI0
aa(lp2349
I632
aI0
aI0
aI1
aI0
aI0
aI1
aI0
aI0
aI0
aa(lp2350
I633
aI0
aI0
aI1
aI0
aI0
aI0
aI1
aI0
aI0
aa(lp2351
I634
aI0
aI0
aI0
aI0
aI0
aI3
aI0
aI0
aI0
aa(lp2352
I635
aI0
aI0
aI0
aI0
aI0
aI2
aI0
aI0
aI0
aa(lp2353
I636
aI0
aI0
aI0
aI0
aI0
aI1
aI0
aI0
aI0
aa(lp2354
I637
aI0
aI0
aI0
aI0
aI0
aI0
aI1
aI0
aI0
aa(lp2355
I638
aI1
aI0
aI0
aI1
aI0
aI0
aI1
aI0
aI0
aa(lp2356
I639
aI0
aI0
aI0
aI1
aI0
aI0
aI1
aI0
aI0
aa(lp2357
I640
aI0
aI0
aI0
aI0
aI0
aI0
aI1
aI0
aI0
aa(lp2358
I641
aI0
aI0
aI0
aI0
aI0
aI0
aI0
aI0
aI0
aa(lp2359
I642
aI0
aI0
aI0
aI19
aI0
aI0
aI0
aI0
aI0
aa(lp2360
I643
aI0
aI0
aI0
aI18
aI0
aI0
aI0
aI0
aI0
aa(lp2361
I644
aI0
aI0
aI0
aI17
aI0
aI0
aI0
aI0
aI0
aa(lp2362
I645
aI0
aI0
aI0
aI16
aI0
aI0
aI0
aI0
aI0
aa(lp2363
I646
aI0
aI0
aI0
aI15
aI0
aI0
aI1
aI0
aI0
aa(lp2364
I647
aI0
aI0
aI0
aI14
aI0
aI0
aI0
aI0
aI0
aa(lp2365
I648
aI0
aI0
aI0
aI13
aI0
aI0
aI1
aI0
aI0
aa(lp2366
I649
aI0
aI0
aI0
aI12
aI0
aI0
aI1
aI0
aI0
aa(lp2367
I650
aI0
aI0
aI0
aI11
aI0
aI1
aI0
aI0
aI0
aa(lp2368
I651
aI0
aI0
aI0
aI10
aI0
aI2
aI0
aI0
aI0
aa(lp2369
I652
aI0
aI0
aI0
aI9
aI0
aI3
aI0
aI0
aI0
aa(lp2370
I653
aI0
aI0
aI0
aI8
aI0
aI3
aI0
aI0
aI0
aa(lp2371
I654
aI0
aI0
aI0
aI7
aI1
aI2
aI0
aI0
aI0
aa(lp2372
I655
aI0
aI0
aI0
aI6
aI2
aI1
aI0
aI0
aI0
aa(lp2373
I656
aI0
aI0
aI0
aI5
aI3
aI0
aI1
aI0
aI0
aa(lp2374
I657
aI0
aI0
aI0
aI4
aI4
aI0
aI1
aI0
aI0
aa(lp2375
I658
aI0
aI0
aI0
aI3
aI5
aI0
aI0
aI0
aI0
aa(lp2376
I659
aI0
aI0
aI0
aI2
aI6
aI0
aI0
aI0
aI0
aa(lp2377
I660
aI0
aI0
aI0
aI1
aI7
aI0
aI0
aI0
aI0
aa(lp2378
I661
aI0
aI0
aI0
aI0
aI8
aI0
aI0
aI0
aI0
aa(lp2379
I662
aI0
aI0
aI0
aI0
aI8
aI0
aI0
aI0
aI0
aa(lp2380
I663
aI0
aI0
aI0
aI0
aI7
aI0
aI0
aI0
aI0
aa(lp2381
I664
aI0
aI0
aI0
aI0
aI6
aI0
aI0
aI0
aI0
aa(lp2382
I665
aI0
aI0
aI0
aI0
aI5
aI0
aI0
aI0
aI0
aa(lp2383
I666
aI0
aI0
aI0
aI0
aI4
aI0
aI1
aI0
aI0
aa(lp2384
I667
aI0
aI0
aI0
aI0
aI3
aI0
aI1
aI0
aI0
aa(lp2385
I668
aI0
aI0
aI0
aI0
aI2
aI1
aI0
aI0
aI0
aa(lp2386
I669
aI0
aI0
aI0
aI0
aI1
aI2
aI0
aI0
aI0
aa(lp2387
I670
aI0
aI0
aI0
aI0
aI0
aI3
aI0
aI0
aI0
aa(lp2388
I671
aI0
aI0
aI1
aI0
aI0
aI3
aI0
aI0
aI0
aa(lp2389
I672
aI0
aI0
aI1
aI0
aI0
aI2
aI0
aI0
aI0
aa(lp2390
I673
aI0
aI0
aI1
aI0
aI0
aI1
aI0
aI0
aI0
aa(lp2391
I674
aI0
aI0
aI1
aI0
aI0
aI0
aI1
aI0
aI0
aa(lp2392
I675
aI0
aI0
aI0
aI0
aI0
aI3
aI0
aI0
aI0
aa(lp2393
I676
aI0
aI0
aI0
aI0
aI0
aI2
aI0
aI0
aI0
aa(lp2394
I677
aI0
aI0
aI0
aI0
aI0
aI1
aI0
aI0
aI0
aa(lp2395
I678
aI0
aI0
aI0
aI0
aI0
aI0
aI1
aI0
aI0
aa(lp2396
I679
aI0
aI0
aI0
aI0
aI0
aI3
aI0
aI0
aI0
aa(lp2397
I680
aI0
aI0
aI0
aI0
aI0
aI2
aI0
aI0
aI0
aa(lp2398
I681
aI0
aI0
aI0
aI0
aI0
aI1
aI0
aI0
aI0
aa(lp2399
I682
aI0
aI0
aI0
aI0
aI0
aI0
aI1
aI0
aI0
aa(lp2400
I683
aI0
aI0
aI0
aI1
aI0
aI0
aI1
aI0
aI0
aa(lp2401
I684
aI0
aI0
aI0
aI0
aI0
aI0
aI1
aI0
aI0
aa(lp2402
I685
aI0
aI0
aI0
aI0
aI0
aI0
aI0
aI0
aI0
aa(lp2403
I686
aI0
aI0
aI0
aI0
aI0
aI0
aI1
aI0
aI0
aa(lp2404
I687
aI0
aI0
aI0
aI0
aI0
aI0
aI0
aI0
aI0
aa(lp2405
I688
aI0
aI0
aI0
aI0
aI8
aI0
aI0
aI0
aI0
aa(lp2406
I689
aI0
aI0
aI0
aI0
aI7
aI0
aI0
aI0
aI0
aa(lp2407
I690
aI0
aI0
aI0
aI0
aI6
aI0
aI0
aI0
aI0
aa(lp2408
I691
aI0
aI0
aI0
aI0
aI5
aI0
aI0
aI0
aI0
aa(lp2409
I692
aI0
aI0
aI0
aI0
aI4
aI0
aI1
aI0
aI0
aa(lp2410
I693
aI0
aI0
aI0
aI0
aI3
aI0
aI1
aI0
aI0
aa(lp2411
I694
aI0
aI0
aI0
aI0
aI2
aI1
aI0
aI0
aI0
aa(lp2412
I695
aI0
aI0
aI0
aI0
aI1
aI2
aI0
aI0
aI0
aa(lp2413
I696
aI0
aI0
aI0
aI0
aI0
aI3
aI0
aI0
aI0
aa(lp2414
I697
aI0
aI0
aI0
aI0
aI0
aI3
aI0
aI0
aI0
aa(lp2415
I698
aI0
aI0
aI0
aI0
aI0
aI2
aI0
aI0
aI0
aa(lp2416
I699
aI0
aI0
aI0
aI0
aI0
aI1
aI0
aI0
aI0
aa(lp2417
I700
aI0
aI0
aI0
aI0
aI0
aI0
aI1
aI0
aI0
aa(lp2418
I701
aI0
aI0
aI0
aI1
aI0
aI0
aI1
aI0
aI0
aa(lp2419
I702
aI0
aI0
aI0
aI0
aI0
aI0
aI1
aI0
aI0
aa(lp2420
I703
aI0
aI0
aI0
aI0
aI0
aI0
aI0
aI0
aI0
aa(lp2421
I704
aI0
aI0
aI0
aI0
aI0
aI0
aI1
aI0
aI0
aa(lp2422
I705
aI0
aI0
aI0
aI0
aI0
aI0
aI0
aI0
aI0
aa(lp2423
I706
aI0
aI0
aI0
aI0
aI0
aI0
aI0
aI0
aI0
aa(lp2424
I707
aI0
aI0
aI0
aI0
aI0
aI3
aI0
aI0
aI0
aa(lp2425
I708
aI0
aI0
aI0
aI0
aI0
aI2
aI0
aI0
aI0
aa(lp2426
I709
aI0
aI0
aI0
aI0
aI0
aI1
aI0
aI0
aI0
aa(lp2427
I710
aI0
aI0
aI0
aI0
aI0
aI0
aI1
aI0
aI0
aa(lp2428
I711
aI0
aI0
aI0
aI0
aI0
aI0
aI1
aI0
aI0
aa(lp2429
I712
aI0
aI0
aI0
aI0
aI0
aI0
aI0
aI0
aI0
aa(lp2430
I713
aI0
aI0
aI0
aI0
aI0
aI0
aI0
aI0
aI0
aa(lp2431
I714
aI0
aI0
aI0
aI0
aI0
aI0
aI1
aI0
aI0
aa(lp2432
I715
aI0
aI0
aI0
aI0
aI0
aI0
aI0
aI0
aI0
aa(lp2433
I716
aI0
aI0
aI0
aI0
aI0
aI0
aI0
aI0
aI0
aa(lp2434
I717
aI0
aI0
aI0
aI0
aI0
aI0
aI0
aI0
aI0
aa(lp2435
I718
aI0
aI0
aI0
aI0
aI0
aI0
aI0
aI0
aI0
aaaa.